ARM GAS  C:\Users\adria\AppData\Local\Temp\ccvzgHfO.s 			page 1


   1              		.syntax unified
   2              		.cpu cortex-m3
   3              		.fpu softvfp
   4              		.eabi_attribute 20, 1
   5              		.eabi_attribute 21, 1
   6              		.eabi_attribute 23, 3
   7              		.eabi_attribute 24, 1
   8              		.eabi_attribute 25, 1
   9              		.eabi_attribute 26, 1
  10              		.eabi_attribute 30, 1
  11              		.eabi_attribute 34, 1
  12              		.eabi_attribute 18, 4
  13              		.thumb
  14              		.syntax unified
  15              		.file	"main.c"
  16              		.text
  17              	.Ltext0:
  18              		.cfi_sections	.debug_frame
  19              		.section	.text.INT_KB,"ax",%progbits
  20              		.align	2
  21              		.global	INT_KB
  22              		.thumb
  23              		.thumb_func
  24              		.type	INT_KB, %function
  25              	INT_KB:
  26              	.LFB65:
  27              		.file 1 "main.c"
   1:main.c        **** #include "project.h"
   2:main.c        **** #include <stdio.h>
   3:main.c        **** #include <stdlib.h>
   4:main.c        **** #include <string.h>
   5:main.c        **** 
   6:main.c        **** uint8 key, column;
   7:main.c        **** char str[16];
   8:main.c        **** uint8 contador=0;
   9:main.c        **** 
  10:main.c        **** void Reloj()
  11:main.c        **** {   
  12:main.c        ****     contador=Counter_ReadCounter();
  13:main.c        ****     if(contador==10){
  14:main.c        ****         Columns_Write(0x0E);
  15:main.c        ****         LCD_PutChar('1');
  16:main.c        ****     }
  17:main.c        ****     if(contador==20){
  18:main.c        ****         Columns_Write(0x0D);
  19:main.c        ****         LCD_PutChar('2');
  20:main.c        ****     }
  21:main.c        ****     if(contador==30){
  22:main.c        ****         Columns_Write(0x0B);
  23:main.c        ****         LCD_PutChar('3');
  24:main.c        ****     }
  25:main.c        ****     if(contador==40){
  26:main.c        ****         Columns_Write(0x07);
  27:main.c        ****         LCD_PutChar('4');
  28:main.c        ****     }
  29:main.c        **** }
  30:main.c        **** 
ARM GAS  C:\Users\adria\AppData\Local\Temp\ccvzgHfO.s 			page 2


  31:main.c        **** CY_ISR(INT_KB){
  28              		.loc 1 31 0
  29              		.cfi_startproc
  30              		@ args = 0, pretend = 0, frame = 0
  31              		@ frame_needed = 0, uses_anonymous_args = 0
  32 0000 10B5     		push	{r4, lr}
  33              		.cfi_def_cfa_offset 8
  34              		.cfi_offset 4, -8
  35              		.cfi_offset 14, -4
  32:main.c        ****     
  33:main.c        ****     column=Rows_Read();
  36              		.loc 1 33 0
  37 0002 FFF7FEFF 		bl	Rows_Read
  38              	.LVL0:
  39 0006 414C     		ldr	r4, .L21
  40 0008 2070     		strb	r0, [r4]
  34:main.c        ****     key=Columns_Read();
  41              		.loc 1 34 0
  42 000a FFF7FEFF 		bl	Columns_Read
  43              	.LVL1:
  35:main.c        ****     key=key<<4;
  44              		.loc 1 35 0
  45 000e 0001     		lsls	r0, r0, #4
  46 0010 C0B2     		uxtb	r0, r0
  36:main.c        ****     key=key|column;
  47              		.loc 1 36 0
  48 0012 2378     		ldrb	r3, [r4]	@ zero_extendqisi2
  49 0014 1843     		orrs	r0, r0, r3
  50 0016 3E4B     		ldr	r3, .L21+4
  51 0018 1870     		strb	r0, [r3]
  37:main.c        **** 
  38:main.c        ****     if(key==0xEE){
  52              		.loc 1 38 0
  53 001a EE28     		cmp	r0, #238
  54 001c 02D1     		bne	.L2
  39:main.c        ****         LCD_PutChar('1');
  55              		.loc 1 39 0
  56 001e 3120     		movs	r0, #49
  57 0020 FFF7FEFF 		bl	LCD_PutChar
  58              	.LVL2:
  59              	.L2:
  40:main.c        ****     }
  41:main.c        ****     if(key==0xED){
  60              		.loc 1 41 0
  61 0024 3A4B     		ldr	r3, .L21+4
  62 0026 1B78     		ldrb	r3, [r3]	@ zero_extendqisi2
  63 0028 ED2B     		cmp	r3, #237
  64 002a 02D1     		bne	.L3
  42:main.c        ****         LCD_PutChar('2');
  65              		.loc 1 42 0
  66 002c 3220     		movs	r0, #50
  67 002e FFF7FEFF 		bl	LCD_PutChar
  68              	.LVL3:
  69              	.L3:
  43:main.c        ****     }
  44:main.c        ****     if(key==0xEB){
  70              		.loc 1 44 0
ARM GAS  C:\Users\adria\AppData\Local\Temp\ccvzgHfO.s 			page 3


  71 0032 374B     		ldr	r3, .L21+4
  72 0034 1B78     		ldrb	r3, [r3]	@ zero_extendqisi2
  73 0036 EB2B     		cmp	r3, #235
  74 0038 02D1     		bne	.L4
  45:main.c        ****         LCD_PutChar('3');
  75              		.loc 1 45 0
  76 003a 3320     		movs	r0, #51
  77 003c FFF7FEFF 		bl	LCD_PutChar
  78              	.LVL4:
  79              	.L4:
  46:main.c        ****     }
  47:main.c        ****     if(key==0xE7){
  80              		.loc 1 47 0
  81 0040 334B     		ldr	r3, .L21+4
  82 0042 1B78     		ldrb	r3, [r3]	@ zero_extendqisi2
  83 0044 E72B     		cmp	r3, #231
  84 0046 02D1     		bne	.L5
  48:main.c        ****         LCD_PutChar('A');
  85              		.loc 1 48 0
  86 0048 4120     		movs	r0, #65
  87 004a FFF7FEFF 		bl	LCD_PutChar
  88              	.LVL5:
  89              	.L5:
  49:main.c        ****     }
  50:main.c        ****     if(key==0xDE){
  90              		.loc 1 50 0
  91 004e 304B     		ldr	r3, .L21+4
  92 0050 1B78     		ldrb	r3, [r3]	@ zero_extendqisi2
  93 0052 DE2B     		cmp	r3, #222
  94 0054 02D1     		bne	.L6
  51:main.c        ****         LCD_PutChar('4');
  95              		.loc 1 51 0
  96 0056 3420     		movs	r0, #52
  97 0058 FFF7FEFF 		bl	LCD_PutChar
  98              	.LVL6:
  99              	.L6:
  52:main.c        ****     }
  53:main.c        ****     if(key==0xDD){
 100              		.loc 1 53 0
 101 005c 2C4B     		ldr	r3, .L21+4
 102 005e 1B78     		ldrb	r3, [r3]	@ zero_extendqisi2
 103 0060 DD2B     		cmp	r3, #221
 104 0062 02D1     		bne	.L7
  54:main.c        ****         LCD_PutChar('5');
 105              		.loc 1 54 0
 106 0064 3520     		movs	r0, #53
 107 0066 FFF7FEFF 		bl	LCD_PutChar
 108              	.LVL7:
 109              	.L7:
  55:main.c        ****     }
  56:main.c        ****     if(key==0xDB){
 110              		.loc 1 56 0
 111 006a 294B     		ldr	r3, .L21+4
 112 006c 1B78     		ldrb	r3, [r3]	@ zero_extendqisi2
 113 006e DB2B     		cmp	r3, #219
 114 0070 02D1     		bne	.L8
  57:main.c        ****         LCD_PutChar('6');
ARM GAS  C:\Users\adria\AppData\Local\Temp\ccvzgHfO.s 			page 4


 115              		.loc 1 57 0
 116 0072 3620     		movs	r0, #54
 117 0074 FFF7FEFF 		bl	LCD_PutChar
 118              	.LVL8:
 119              	.L8:
  58:main.c        ****     }
  59:main.c        ****     if(key==0xD7){
 120              		.loc 1 59 0
 121 0078 254B     		ldr	r3, .L21+4
 122 007a 1B78     		ldrb	r3, [r3]	@ zero_extendqisi2
 123 007c D72B     		cmp	r3, #215
 124 007e 02D1     		bne	.L9
  60:main.c        ****         LCD_PutChar('B');
 125              		.loc 1 60 0
 126 0080 4220     		movs	r0, #66
 127 0082 FFF7FEFF 		bl	LCD_PutChar
 128              	.LVL9:
 129              	.L9:
  61:main.c        ****     }
  62:main.c        ****     if(key==0xBE){
 130              		.loc 1 62 0
 131 0086 224B     		ldr	r3, .L21+4
 132 0088 1B78     		ldrb	r3, [r3]	@ zero_extendqisi2
 133 008a BE2B     		cmp	r3, #190
 134 008c 02D1     		bne	.L10
  63:main.c        ****         LCD_PutChar('7');
 135              		.loc 1 63 0
 136 008e 3720     		movs	r0, #55
 137 0090 FFF7FEFF 		bl	LCD_PutChar
 138              	.LVL10:
 139              	.L10:
  64:main.c        ****     }
  65:main.c        ****     if(key==0xBD){
 140              		.loc 1 65 0
 141 0094 1E4B     		ldr	r3, .L21+4
 142 0096 1B78     		ldrb	r3, [r3]	@ zero_extendqisi2
 143 0098 BD2B     		cmp	r3, #189
 144 009a 02D1     		bne	.L11
  66:main.c        ****         LCD_PutChar('8');
 145              		.loc 1 66 0
 146 009c 3820     		movs	r0, #56
 147 009e FFF7FEFF 		bl	LCD_PutChar
 148              	.LVL11:
 149              	.L11:
  67:main.c        ****     }
  68:main.c        ****     if(key==0xBB){
 150              		.loc 1 68 0
 151 00a2 1B4B     		ldr	r3, .L21+4
 152 00a4 1B78     		ldrb	r3, [r3]	@ zero_extendqisi2
 153 00a6 BB2B     		cmp	r3, #187
 154 00a8 02D1     		bne	.L12
  69:main.c        ****         LCD_PutChar('9');
 155              		.loc 1 69 0
 156 00aa 3920     		movs	r0, #57
 157 00ac FFF7FEFF 		bl	LCD_PutChar
 158              	.LVL12:
 159              	.L12:
ARM GAS  C:\Users\adria\AppData\Local\Temp\ccvzgHfO.s 			page 5


  70:main.c        ****     }
  71:main.c        ****     if(key==0xB7){
 160              		.loc 1 71 0
 161 00b0 174B     		ldr	r3, .L21+4
 162 00b2 1B78     		ldrb	r3, [r3]	@ zero_extendqisi2
 163 00b4 B72B     		cmp	r3, #183
 164 00b6 02D1     		bne	.L13
  72:main.c        ****         LCD_PutChar('C');
 165              		.loc 1 72 0
 166 00b8 4320     		movs	r0, #67
 167 00ba FFF7FEFF 		bl	LCD_PutChar
 168              	.LVL13:
 169              	.L13:
  73:main.c        ****     }
  74:main.c        ****     if(key==0x7E){
 170              		.loc 1 74 0
 171 00be 144B     		ldr	r3, .L21+4
 172 00c0 1B78     		ldrb	r3, [r3]	@ zero_extendqisi2
 173 00c2 7E2B     		cmp	r3, #126
 174 00c4 02D1     		bne	.L14
  75:main.c        ****         LCD_PutChar('*');
 175              		.loc 1 75 0
 176 00c6 2A20     		movs	r0, #42
 177 00c8 FFF7FEFF 		bl	LCD_PutChar
 178              	.LVL14:
 179              	.L14:
  76:main.c        ****     }
  77:main.c        ****     if(key==0x7D){
 180              		.loc 1 77 0
 181 00cc 104B     		ldr	r3, .L21+4
 182 00ce 1B78     		ldrb	r3, [r3]	@ zero_extendqisi2
 183 00d0 7D2B     		cmp	r3, #125
 184 00d2 02D1     		bne	.L15
  78:main.c        ****         LCD_PutChar('0');
 185              		.loc 1 78 0
 186 00d4 3020     		movs	r0, #48
 187 00d6 FFF7FEFF 		bl	LCD_PutChar
 188              	.LVL15:
 189              	.L15:
  79:main.c        ****     }
  80:main.c        ****     if(key==0x7B){
 190              		.loc 1 80 0
 191 00da 0D4B     		ldr	r3, .L21+4
 192 00dc 1B78     		ldrb	r3, [r3]	@ zero_extendqisi2
 193 00de 7B2B     		cmp	r3, #123
 194 00e0 02D1     		bne	.L16
  81:main.c        ****         LCD_PutChar('#');
 195              		.loc 1 81 0
 196 00e2 2320     		movs	r0, #35
 197 00e4 FFF7FEFF 		bl	LCD_PutChar
 198              	.LVL16:
 199              	.L16:
  82:main.c        ****     }
  83:main.c        ****     if(key==0x77){
 200              		.loc 1 83 0
 201 00e8 094B     		ldr	r3, .L21+4
 202 00ea 1B78     		ldrb	r3, [r3]	@ zero_extendqisi2
ARM GAS  C:\Users\adria\AppData\Local\Temp\ccvzgHfO.s 			page 6


 203 00ec 772B     		cmp	r3, #119
 204 00ee 06D1     		bne	.L18
  84:main.c        ****         LCD_PutChar('D');
 205              		.loc 1 84 0
 206 00f0 4420     		movs	r0, #68
 207 00f2 FFF7FEFF 		bl	LCD_PutChar
 208              	.LVL17:
 209 00f6 02E0     		b	.L18
 210              	.L19:
  85:main.c        ****     }
  86:main.c        **** 
  87:main.c        ****     while(Rows_Read()!=0x0F)
  88:main.c        **** 
  89:main.c        ****     CyDelay(10);
 211              		.loc 1 89 0
 212 00f8 0A20     		movs	r0, #10
 213 00fa FFF7FEFF 		bl	CyDelay
 214              	.LVL18:
 215              	.L18:
  87:main.c        **** 
 216              		.loc 1 87 0
 217 00fe FFF7FEFF 		bl	Rows_Read
 218              	.LVL19:
 219 0102 0F28     		cmp	r0, #15
 220 0104 F8D1     		bne	.L19
  90:main.c        ****     Rows_ClearInterrupt();
 221              		.loc 1 90 0
 222 0106 FFF7FEFF 		bl	Rows_ClearInterrupt
 223              	.LVL20:
 224 010a 10BD     		pop	{r4, pc}
 225              	.L22:
 226              		.align	2
 227              	.L21:
 228 010c 00000000 		.word	column
 229 0110 00000000 		.word	key
 230              		.cfi_endproc
 231              	.LFE65:
 232              		.size	INT_KB, .-INT_KB
 233              		.section	.text.Reloj,"ax",%progbits
 234              		.align	2
 235              		.global	Reloj
 236              		.thumb
 237              		.thumb_func
 238              		.type	Reloj, %function
 239              	Reloj:
 240              	.LFB64:
  11:main.c        ****     contador=Counter_ReadCounter();
 241              		.loc 1 11 0
 242              		.cfi_startproc
 243              		@ args = 0, pretend = 0, frame = 0
 244              		@ frame_needed = 0, uses_anonymous_args = 0
 245 0000 08B5     		push	{r3, lr}
 246              		.cfi_def_cfa_offset 8
 247              		.cfi_offset 3, -8
 248              		.cfi_offset 14, -4
  12:main.c        ****     if(contador==10){
 249              		.loc 1 12 0
ARM GAS  C:\Users\adria\AppData\Local\Temp\ccvzgHfO.s 			page 7


 250 0002 FFF7FEFF 		bl	Counter_ReadCounter
 251              	.LVL21:
 252 0006 144B     		ldr	r3, .L29
 253 0008 1870     		strb	r0, [r3]
  13:main.c        ****         Columns_Write(0x0E);
 254              		.loc 1 13 0
 255 000a 0A28     		cmp	r0, #10
 256 000c 05D1     		bne	.L24
  14:main.c        ****         LCD_PutChar('1');
 257              		.loc 1 14 0
 258 000e 0E20     		movs	r0, #14
 259 0010 FFF7FEFF 		bl	Columns_Write
 260              	.LVL22:
  15:main.c        ****     }
 261              		.loc 1 15 0
 262 0014 3120     		movs	r0, #49
 263 0016 FFF7FEFF 		bl	LCD_PutChar
 264              	.LVL23:
 265              	.L24:
  17:main.c        ****         Columns_Write(0x0D);
 266              		.loc 1 17 0
 267 001a 0F4B     		ldr	r3, .L29
 268 001c 1B78     		ldrb	r3, [r3]	@ zero_extendqisi2
 269 001e 142B     		cmp	r3, #20
 270 0020 05D1     		bne	.L25
  18:main.c        ****         LCD_PutChar('2');
 271              		.loc 1 18 0
 272 0022 0D20     		movs	r0, #13
 273 0024 FFF7FEFF 		bl	Columns_Write
 274              	.LVL24:
  19:main.c        ****     }
 275              		.loc 1 19 0
 276 0028 3220     		movs	r0, #50
 277 002a FFF7FEFF 		bl	LCD_PutChar
 278              	.LVL25:
 279              	.L25:
  21:main.c        ****         Columns_Write(0x0B);
 280              		.loc 1 21 0
 281 002e 0A4B     		ldr	r3, .L29
 282 0030 1B78     		ldrb	r3, [r3]	@ zero_extendqisi2
 283 0032 1E2B     		cmp	r3, #30
 284 0034 05D1     		bne	.L26
  22:main.c        ****         LCD_PutChar('3');
 285              		.loc 1 22 0
 286 0036 0B20     		movs	r0, #11
 287 0038 FFF7FEFF 		bl	Columns_Write
 288              	.LVL26:
  23:main.c        ****     }
 289              		.loc 1 23 0
 290 003c 3320     		movs	r0, #51
 291 003e FFF7FEFF 		bl	LCD_PutChar
 292              	.LVL27:
 293              	.L26:
  25:main.c        ****         Columns_Write(0x07);
 294              		.loc 1 25 0
 295 0042 054B     		ldr	r3, .L29
 296 0044 1B78     		ldrb	r3, [r3]	@ zero_extendqisi2
ARM GAS  C:\Users\adria\AppData\Local\Temp\ccvzgHfO.s 			page 8


 297 0046 282B     		cmp	r3, #40
 298 0048 05D1     		bne	.L23
  26:main.c        ****         LCD_PutChar('4');
 299              		.loc 1 26 0
 300 004a 0720     		movs	r0, #7
 301 004c FFF7FEFF 		bl	Columns_Write
 302              	.LVL28:
  27:main.c        ****     }
 303              		.loc 1 27 0
 304 0050 3420     		movs	r0, #52
 305 0052 FFF7FEFF 		bl	LCD_PutChar
 306              	.LVL29:
 307              	.L23:
 308 0056 08BD     		pop	{r3, pc}
 309              	.L30:
 310              		.align	2
 311              	.L29:
 312 0058 00000000 		.word	.LANCHOR0
 313              		.cfi_endproc
 314              	.LFE64:
 315              		.size	Reloj, .-Reloj
 316              		.section	.text.message,"ax",%progbits
 317              		.align	2
 318              		.global	message
 319              		.thumb
 320              		.thumb_func
 321              		.type	message, %function
 322              	message:
 323              	.LFB66:
  91:main.c        **** 
  92:main.c        **** }
  93:main.c        **** 
  94:main.c        **** void message()
  95:main.c        **** {
 324              		.loc 1 95 0
 325              		.cfi_startproc
 326              		@ args = 0, pretend = 0, frame = 0
 327              		@ frame_needed = 0, uses_anonymous_args = 0
 328 0000 08B5     		push	{r3, lr}
 329              		.cfi_def_cfa_offset 8
 330              		.cfi_offset 3, -8
 331              		.cfi_offset 14, -4
  96:main.c        ****     LCD_Position(0,0);
 332              		.loc 1 96 0
 333 0002 0021     		movs	r1, #0
 334 0004 0846     		mov	r0, r1
 335 0006 FFF7FEFF 		bl	LCD_Position
 336              	.LVL30:
  97:main.c        ****     LCD_PrintString(": ");
 337              		.loc 1 97 0
 338 000a 0248     		ldr	r0, .L33
 339 000c FFF7FEFF 		bl	LCD_PrintString
 340              	.LVL31:
 341 0010 08BD     		pop	{r3, pc}
 342              	.L34:
 343 0012 00BF     		.align	2
 344              	.L33:
ARM GAS  C:\Users\adria\AppData\Local\Temp\ccvzgHfO.s 			page 9


 345 0014 00000000 		.word	.LC0
 346              		.cfi_endproc
 347              	.LFE66:
 348              		.size	message, .-message
 349              		.section	.text.main,"ax",%progbits
 350              		.align	2
 351              		.global	main
 352              		.thumb
 353              		.thumb_func
 354              		.type	main, %function
 355              	main:
 356              	.LFB67:
  98:main.c        **** }
  99:main.c        **** 
 100:main.c        **** int main(void)
 101:main.c        **** {
 357              		.loc 1 101 0
 358              		.cfi_startproc
 359              		@ Volatile: function does not return.
 360              		@ args = 0, pretend = 0, frame = 0
 361              		@ frame_needed = 0, uses_anonymous_args = 0
 362 0000 08B5     		push	{r3, lr}
 363              		.cfi_def_cfa_offset 8
 364              		.cfi_offset 3, -8
 365              		.cfi_offset 14, -4
 102:main.c        ****     CyGlobalIntEnable;
 366              		.loc 1 102 0
 367              		.syntax unified
 368              	@ 102 "main.c" 1
 369 0002 62B6     		CPSIE   i
 370              	@ 0 "" 2
 103:main.c        ****     LCD_Start();
 371              		.loc 1 103 0
 372              		.thumb
 373              		.syntax unified
 374 0004 FFF7FEFF 		bl	LCD_Start
 375              	.LVL32:
 104:main.c        ****     Timer_Start();
 376              		.loc 1 104 0
 377 0008 FFF7FEFF 		bl	Timer_Start
 378              	.LVL33:
 105:main.c        ****     Counter_Start();
 379              		.loc 1 105 0
 380 000c FFF7FEFF 		bl	Counter_Start
 381              	.LVL34:
 106:main.c        ****     isr_Start_StartEx(INT_KB);
 382              		.loc 1 106 0
 383 0010 0348     		ldr	r0, .L38
 384 0012 FFF7FEFF 		bl	isr_Start_StartEx
 385              	.LVL35:
 107:main.c        **** 
 108:main.c        ****     message();
 386              		.loc 1 108 0
 387 0016 FFF7FEFF 		bl	message
 388              	.LVL36:
 389              	.L36:
 109:main.c        ****     for(;;)
ARM GAS  C:\Users\adria\AppData\Local\Temp\ccvzgHfO.s 			page 10


 110:main.c        ****     {
 111:main.c        ****         Reloj();
 390              		.loc 1 111 0 discriminator 1
 391 001a FFF7FEFF 		bl	Reloj
 392              	.LVL37:
 393 001e FCE7     		b	.L36
 394              	.L39:
 395              		.align	2
 396              	.L38:
 397 0020 00000000 		.word	INT_KB
 398              		.cfi_endproc
 399              	.LFE67:
 400              		.size	main, .-main
 401              		.global	contador
 402              		.comm	str,16,4
 403              		.comm	column,1,1
 404              		.comm	key,1,1
 405              		.section	.rodata.str1.4,"aMS",%progbits,1
 406              		.align	2
 407              	.LC0:
 408 0000 3A2000   		.ascii	": \000"
 409              		.bss
 410              		.set	.LANCHOR0,. + 0
 411              		.type	contador, %object
 412              		.size	contador, 1
 413              	contador:
 414 0000 00       		.space	1
 415              		.text
 416              	.Letext0:
 417              		.file 2 "c:\\program files (x86)\\cypress\\psoc creator\\4.4\\psoc creator\\import\\gnu\\arm\\5.4.
 418              		.file 3 "c:\\program files (x86)\\cypress\\psoc creator\\4.4\\psoc creator\\import\\gnu\\arm\\5.4.
 419              		.file 4 "Generated_Source\\PSoC5/cytypes.h"
 420              		.file 5 "Generated_Source\\PSoC5/core_cm3.h"
 421              		.file 6 "Generated_Source\\PSoC5/Rows.h"
 422              		.file 7 "Generated_Source\\PSoC5/Columns.h"
 423              		.file 8 "Generated_Source\\PSoC5/LCD.h"
 424              		.file 9 "Generated_Source\\PSoC5/CyLib.h"
 425              		.file 10 "Generated_Source\\PSoC5/Counter.h"
 426              		.file 11 "Generated_Source\\PSoC5/Timer.h"
 427              		.file 12 "Generated_Source\\PSoC5/isr_Start.h"