ARM GAS  C:\Users\adria\AppData\Local\Temp\ccfCeBqn.s 			page 1


   1              		.syntax unified
   2              		.cpu cortex-m3
   3              		.fpu softvfp
   4              		.eabi_attribute 20, 1
   5              		.eabi_attribute 21, 1
   6              		.eabi_attribute 23, 3
   7              		.eabi_attribute 24, 1
   8              		.eabi_attribute 25, 1
   9              		.eabi_attribute 26, 1
  10              		.eabi_attribute 30, 4
  11              		.eabi_attribute 34, 1
  12              		.eabi_attribute 18, 4
  13              		.thumb
  14              		.syntax unified
  15              		.file	"cyfitter_cfg.c"
  16              		.text
  17              	.Ltext0:
  18              		.cfi_sections	.debug_frame
  19              		.section	.text.SetAnalogRoutingPumps,"ax",%progbits
  20              		.align	1
  21              		.global	SetAnalogRoutingPumps
  22              		.thumb
  23              		.thumb_func
  24              		.type	SetAnalogRoutingPumps, %function
  25              	SetAnalogRoutingPumps:
  26              	.LFB7:
  27              		.file 1 "Generated_Source\\PSoC5\\cyfitter_cfg.c"
   1:Generated_Source\PSoC5/cyfitter_cfg.c **** 
   2:Generated_Source\PSoC5/cyfitter_cfg.c **** /*******************************************************************************
   3:Generated_Source\PSoC5/cyfitter_cfg.c **** * File Name: cyfitter_cfg.c
   4:Generated_Source\PSoC5/cyfitter_cfg.c **** * 
   5:Generated_Source\PSoC5/cyfitter_cfg.c **** * PSoC Creator  4.4
   6:Generated_Source\PSoC5/cyfitter_cfg.c **** *
   7:Generated_Source\PSoC5/cyfitter_cfg.c **** * Description:
   8:Generated_Source\PSoC5/cyfitter_cfg.c **** * This file contains device initialization code.
   9:Generated_Source\PSoC5/cyfitter_cfg.c **** * Except for the user defined sections in CyClockStartupError(), this file should not be modified.
  10:Generated_Source\PSoC5/cyfitter_cfg.c **** * This file is automatically generated by PSoC Creator.
  11:Generated_Source\PSoC5/cyfitter_cfg.c **** *
  12:Generated_Source\PSoC5/cyfitter_cfg.c **** ********************************************************************************
  13:Generated_Source\PSoC5/cyfitter_cfg.c **** * Copyright (c) 2007-2020 Cypress Semiconductor.  All rights reserved.
  14:Generated_Source\PSoC5/cyfitter_cfg.c **** * You may use this file only in accordance with the license, terms, conditions, 
  15:Generated_Source\PSoC5/cyfitter_cfg.c **** * disclaimers, and limitations in the end user license agreement accompanying 
  16:Generated_Source\PSoC5/cyfitter_cfg.c **** * the software package with which this file was provided.
  17:Generated_Source\PSoC5/cyfitter_cfg.c **** ********************************************************************************/
  18:Generated_Source\PSoC5/cyfitter_cfg.c **** 
  19:Generated_Source\PSoC5/cyfitter_cfg.c **** #include <string.h>
  20:Generated_Source\PSoC5/cyfitter_cfg.c **** #include "cytypes.h"
  21:Generated_Source\PSoC5/cyfitter_cfg.c **** #include "cydevice_trm.h"
  22:Generated_Source\PSoC5/cyfitter_cfg.c **** #include "cyfitter.h"
  23:Generated_Source\PSoC5/cyfitter_cfg.c **** #include "CyLib.h"
  24:Generated_Source\PSoC5/cyfitter_cfg.c **** #include "cyfitter_cfg.h"
  25:Generated_Source\PSoC5/cyfitter_cfg.c **** #include "cyapicallbacks.h"
  26:Generated_Source\PSoC5/cyfitter_cfg.c **** 
  27:Generated_Source\PSoC5/cyfitter_cfg.c **** #define CY_NEED_CYCLOCKSTARTUPERROR 1
  28:Generated_Source\PSoC5/cyfitter_cfg.c **** 
  29:Generated_Source\PSoC5/cyfitter_cfg.c **** 
  30:Generated_Source\PSoC5/cyfitter_cfg.c **** #if defined(__GNUC__) || defined(__ARMCC_VERSION)
ARM GAS  C:\Users\adria\AppData\Local\Temp\ccfCeBqn.s 			page 2


  31:Generated_Source\PSoC5/cyfitter_cfg.c ****     #define CYPACKED 
  32:Generated_Source\PSoC5/cyfitter_cfg.c ****     #define CYPACKED_ATTR __attribute__ ((packed))
  33:Generated_Source\PSoC5/cyfitter_cfg.c ****     #define CYALIGNED __attribute__ ((aligned))
  34:Generated_Source\PSoC5/cyfitter_cfg.c ****     #define CY_CFG_UNUSED __attribute__ ((unused))
  35:Generated_Source\PSoC5/cyfitter_cfg.c ****     #ifndef CY_CFG_SECTION
  36:Generated_Source\PSoC5/cyfitter_cfg.c ****         #define CY_CFG_SECTION __attribute__ ((section(".psocinit")))
  37:Generated_Source\PSoC5/cyfitter_cfg.c ****     #endif
  38:Generated_Source\PSoC5/cyfitter_cfg.c ****     
  39:Generated_Source\PSoC5/cyfitter_cfg.c ****     #if defined(__ARMCC_VERSION)
  40:Generated_Source\PSoC5/cyfitter_cfg.c ****         #define CY_CFG_MEMORY_BARRIER() __memory_changed()
  41:Generated_Source\PSoC5/cyfitter_cfg.c ****     #else
  42:Generated_Source\PSoC5/cyfitter_cfg.c ****         #define CY_CFG_MEMORY_BARRIER() __sync_synchronize()
  43:Generated_Source\PSoC5/cyfitter_cfg.c ****     #endif
  44:Generated_Source\PSoC5/cyfitter_cfg.c ****     
  45:Generated_Source\PSoC5/cyfitter_cfg.c **** #elif defined(__ICCARM__)
  46:Generated_Source\PSoC5/cyfitter_cfg.c ****     #include <intrinsics.h>
  47:Generated_Source\PSoC5/cyfitter_cfg.c **** 
  48:Generated_Source\PSoC5/cyfitter_cfg.c ****     #define CYPACKED __packed
  49:Generated_Source\PSoC5/cyfitter_cfg.c ****     #define CYPACKED_ATTR 
  50:Generated_Source\PSoC5/cyfitter_cfg.c ****     #define CYALIGNED _Pragma("data_alignment=4")
  51:Generated_Source\PSoC5/cyfitter_cfg.c ****     #define CY_CFG_UNUSED _Pragma("diag_suppress=Pe177")
  52:Generated_Source\PSoC5/cyfitter_cfg.c ****     #define CY_CFG_SECTION _Pragma("location=\".psocinit\"")
  53:Generated_Source\PSoC5/cyfitter_cfg.c ****     
  54:Generated_Source\PSoC5/cyfitter_cfg.c ****     #define CY_CFG_MEMORY_BARRIER() __DMB()
  55:Generated_Source\PSoC5/cyfitter_cfg.c ****     
  56:Generated_Source\PSoC5/cyfitter_cfg.c **** #else
  57:Generated_Source\PSoC5/cyfitter_cfg.c ****     #error Unsupported toolchain
  58:Generated_Source\PSoC5/cyfitter_cfg.c **** #endif
  59:Generated_Source\PSoC5/cyfitter_cfg.c **** 
  60:Generated_Source\PSoC5/cyfitter_cfg.c **** #ifndef CYCODE
  61:Generated_Source\PSoC5/cyfitter_cfg.c ****     #define CYCODE
  62:Generated_Source\PSoC5/cyfitter_cfg.c **** #endif
  63:Generated_Source\PSoC5/cyfitter_cfg.c **** #ifndef CYDATA
  64:Generated_Source\PSoC5/cyfitter_cfg.c ****     #define CYDATA
  65:Generated_Source\PSoC5/cyfitter_cfg.c **** #endif
  66:Generated_Source\PSoC5/cyfitter_cfg.c **** #ifndef CYFAR
  67:Generated_Source\PSoC5/cyfitter_cfg.c ****     #define CYFAR
  68:Generated_Source\PSoC5/cyfitter_cfg.c **** #endif
  69:Generated_Source\PSoC5/cyfitter_cfg.c **** #ifndef CYXDATA
  70:Generated_Source\PSoC5/cyfitter_cfg.c ****     #define CYXDATA
  71:Generated_Source\PSoC5/cyfitter_cfg.c **** #endif
  72:Generated_Source\PSoC5/cyfitter_cfg.c **** 
  73:Generated_Source\PSoC5/cyfitter_cfg.c **** 
  74:Generated_Source\PSoC5/cyfitter_cfg.c **** CY_CFG_UNUSED
  75:Generated_Source\PSoC5/cyfitter_cfg.c **** static void CYMEMZERO(void *s, size_t n);
  76:Generated_Source\PSoC5/cyfitter_cfg.c **** CY_CFG_UNUSED
  77:Generated_Source\PSoC5/cyfitter_cfg.c **** static void CYMEMZERO(void *s, size_t n)
  78:Generated_Source\PSoC5/cyfitter_cfg.c **** {
  79:Generated_Source\PSoC5/cyfitter_cfg.c **** 	(void)memset(s, 0, n);
  80:Generated_Source\PSoC5/cyfitter_cfg.c **** }
  81:Generated_Source\PSoC5/cyfitter_cfg.c **** CY_CFG_UNUSED
  82:Generated_Source\PSoC5/cyfitter_cfg.c **** static void CYCONFIGCPY(void *dest, const void *src, size_t n);
  83:Generated_Source\PSoC5/cyfitter_cfg.c **** CY_CFG_UNUSED
  84:Generated_Source\PSoC5/cyfitter_cfg.c **** static void CYCONFIGCPY(void *dest, const void *src, size_t n)
  85:Generated_Source\PSoC5/cyfitter_cfg.c **** {
  86:Generated_Source\PSoC5/cyfitter_cfg.c **** 	(void)memcpy(dest, src, n);
  87:Generated_Source\PSoC5/cyfitter_cfg.c **** }
ARM GAS  C:\Users\adria\AppData\Local\Temp\ccfCeBqn.s 			page 3


  88:Generated_Source\PSoC5/cyfitter_cfg.c **** CY_CFG_UNUSED
  89:Generated_Source\PSoC5/cyfitter_cfg.c **** static void CYCONFIGCPYCODE(void *dest, const void *src, size_t n);
  90:Generated_Source\PSoC5/cyfitter_cfg.c **** CY_CFG_UNUSED
  91:Generated_Source\PSoC5/cyfitter_cfg.c **** static void CYCONFIGCPYCODE(void *dest, const void *src, size_t n)
  92:Generated_Source\PSoC5/cyfitter_cfg.c **** {
  93:Generated_Source\PSoC5/cyfitter_cfg.c **** 	(void)memcpy(dest, src, n);
  94:Generated_Source\PSoC5/cyfitter_cfg.c **** }
  95:Generated_Source\PSoC5/cyfitter_cfg.c **** 
  96:Generated_Source\PSoC5/cyfitter_cfg.c **** 
  97:Generated_Source\PSoC5/cyfitter_cfg.c **** 
  98:Generated_Source\PSoC5/cyfitter_cfg.c **** 
  99:Generated_Source\PSoC5/cyfitter_cfg.c **** /* Clock startup error codes                                                   */
 100:Generated_Source\PSoC5/cyfitter_cfg.c **** #define CYCLOCKSTART_NO_ERROR    0u
 101:Generated_Source\PSoC5/cyfitter_cfg.c **** #define CYCLOCKSTART_XTAL_ERROR  1u
 102:Generated_Source\PSoC5/cyfitter_cfg.c **** #define CYCLOCKSTART_32KHZ_ERROR 2u
 103:Generated_Source\PSoC5/cyfitter_cfg.c **** #define CYCLOCKSTART_PLL_ERROR   3u
 104:Generated_Source\PSoC5/cyfitter_cfg.c **** #define CYCLOCKSTART_FLL_ERROR   4u
 105:Generated_Source\PSoC5/cyfitter_cfg.c **** #define CYCLOCKSTART_WCO_ERROR   5u
 106:Generated_Source\PSoC5/cyfitter_cfg.c **** 
 107:Generated_Source\PSoC5/cyfitter_cfg.c **** 
 108:Generated_Source\PSoC5/cyfitter_cfg.c **** #ifdef CY_NEED_CYCLOCKSTARTUPERROR
 109:Generated_Source\PSoC5/cyfitter_cfg.c **** /*******************************************************************************
 110:Generated_Source\PSoC5/cyfitter_cfg.c **** * Function Name: CyClockStartupError
 111:Generated_Source\PSoC5/cyfitter_cfg.c **** ********************************************************************************
 112:Generated_Source\PSoC5/cyfitter_cfg.c **** * Summary:
 113:Generated_Source\PSoC5/cyfitter_cfg.c **** *  If an error is encountered during clock configuration (crystal startup error,
 114:Generated_Source\PSoC5/cyfitter_cfg.c **** *  PLL lock error, etc.), the system will end up here.  Unless reimplemented by
 115:Generated_Source\PSoC5/cyfitter_cfg.c **** *  the customer, this function will stop in an infinite loop.
 116:Generated_Source\PSoC5/cyfitter_cfg.c **** *
 117:Generated_Source\PSoC5/cyfitter_cfg.c **** * Parameters:
 118:Generated_Source\PSoC5/cyfitter_cfg.c **** *   void
 119:Generated_Source\PSoC5/cyfitter_cfg.c **** *
 120:Generated_Source\PSoC5/cyfitter_cfg.c **** * Return:
 121:Generated_Source\PSoC5/cyfitter_cfg.c **** *   void
 122:Generated_Source\PSoC5/cyfitter_cfg.c **** *
 123:Generated_Source\PSoC5/cyfitter_cfg.c **** *******************************************************************************/
 124:Generated_Source\PSoC5/cyfitter_cfg.c **** CY_CFG_UNUSED
 125:Generated_Source\PSoC5/cyfitter_cfg.c **** static void CyClockStartupError(uint8 errorCode);
 126:Generated_Source\PSoC5/cyfitter_cfg.c **** CY_CFG_UNUSED
 127:Generated_Source\PSoC5/cyfitter_cfg.c **** static void CyClockStartupError(uint8 errorCode)
 128:Generated_Source\PSoC5/cyfitter_cfg.c **** {
 129:Generated_Source\PSoC5/cyfitter_cfg.c ****     /* To remove the compiler warning if errorCode not used.                */
 130:Generated_Source\PSoC5/cyfitter_cfg.c ****     errorCode = errorCode;
 131:Generated_Source\PSoC5/cyfitter_cfg.c **** 
 132:Generated_Source\PSoC5/cyfitter_cfg.c ****     /* If we have a clock startup error (bad MHz crystal, PLL lock, etc.),  */
 133:Generated_Source\PSoC5/cyfitter_cfg.c ****     /* we will end up here to allow the customer to implement something to  */
 134:Generated_Source\PSoC5/cyfitter_cfg.c ****     /* deal with the clock condition.                                       */
 135:Generated_Source\PSoC5/cyfitter_cfg.c **** 
 136:Generated_Source\PSoC5/cyfitter_cfg.c **** #ifdef CY_CFG_CLOCK_STARTUP_ERROR_CALLBACK
 137:Generated_Source\PSoC5/cyfitter_cfg.c ****     CY_CFG_Clock_Startup_ErrorCallback();
 138:Generated_Source\PSoC5/cyfitter_cfg.c **** #else
 139:Generated_Source\PSoC5/cyfitter_cfg.c ****     /*  If not using CY_CFG_CLOCK_STARTUP_ERROR_CALLBACK, place your clock startup code here. */
 140:Generated_Source\PSoC5/cyfitter_cfg.c ****     /* `#START CyClockStartupError` */
 141:Generated_Source\PSoC5/cyfitter_cfg.c **** 
 142:Generated_Source\PSoC5/cyfitter_cfg.c **** 
 143:Generated_Source\PSoC5/cyfitter_cfg.c **** 
 144:Generated_Source\PSoC5/cyfitter_cfg.c ****     /* `#END` */
ARM GAS  C:\Users\adria\AppData\Local\Temp\ccfCeBqn.s 			page 4


 145:Generated_Source\PSoC5/cyfitter_cfg.c **** 
 146:Generated_Source\PSoC5/cyfitter_cfg.c ****     while(1) {}
 147:Generated_Source\PSoC5/cyfitter_cfg.c **** #endif /* CY_CFG_CLOCK_STARTUP_ERROR_CALLBACK */
 148:Generated_Source\PSoC5/cyfitter_cfg.c **** }
 149:Generated_Source\PSoC5/cyfitter_cfg.c **** #endif
 150:Generated_Source\PSoC5/cyfitter_cfg.c **** 
 151:Generated_Source\PSoC5/cyfitter_cfg.c **** #define CY_CFG_BASE_ADDR_COUNT 17u
 152:Generated_Source\PSoC5/cyfitter_cfg.c **** CYPACKED typedef struct
 153:Generated_Source\PSoC5/cyfitter_cfg.c **** {
 154:Generated_Source\PSoC5/cyfitter_cfg.c **** 	uint8 offset;
 155:Generated_Source\PSoC5/cyfitter_cfg.c **** 	uint8 value;
 156:Generated_Source\PSoC5/cyfitter_cfg.c **** } CYPACKED_ATTR cy_cfg_addrvalue_t;
 157:Generated_Source\PSoC5/cyfitter_cfg.c **** 
 158:Generated_Source\PSoC5/cyfitter_cfg.c **** #define cy_cfg_addr_table ((const uint32 CYFAR *)0x48000000u)
 159:Generated_Source\PSoC5/cyfitter_cfg.c **** #define cy_cfg_data_table ((const cy_cfg_addrvalue_t CYFAR *)0x48000044u)
 160:Generated_Source\PSoC5/cyfitter_cfg.c **** 
 161:Generated_Source\PSoC5/cyfitter_cfg.c **** /* PICU_3 Address: CYDEV_PICU_INTTYPE_PICU3_BASE Size (bytes): 8 */
 162:Generated_Source\PSoC5/cyfitter_cfg.c **** #define BS_PICU_3_VAL ((const uint8 CYFAR *)0x480002A4u)
 163:Generated_Source\PSoC5/cyfitter_cfg.c **** 
 164:Generated_Source\PSoC5/cyfitter_cfg.c **** /* IOPORT_7 Address: CYDEV_PRTDSI_PRT12_BASE Size (bytes): 6 */
 165:Generated_Source\PSoC5/cyfitter_cfg.c **** #define BS_IOPORT_7_VAL ((const uint8 CYFAR *)0x480002ACu)
 166:Generated_Source\PSoC5/cyfitter_cfg.c **** 
 167:Generated_Source\PSoC5/cyfitter_cfg.c **** /* UDB_0_1_1_CONFIG Address: CYDEV_UCFG_B1_P4_U0_BASE Size (bytes): 128 */
 168:Generated_Source\PSoC5/cyfitter_cfg.c **** #define BS_UDB_0_1_1_CONFIG_VAL ((const uint8 CYFAR *)0x480002B4u)
 169:Generated_Source\PSoC5/cyfitter_cfg.c **** 
 170:Generated_Source\PSoC5/cyfitter_cfg.c **** /* IOPINS0_7 Address: CYREG_PRT12_DR Size (bytes): 10 */
 171:Generated_Source\PSoC5/cyfitter_cfg.c **** #define BS_IOPINS0_7_VAL ((const uint8 CYFAR *)0x48000334u)
 172:Generated_Source\PSoC5/cyfitter_cfg.c **** 
 173:Generated_Source\PSoC5/cyfitter_cfg.c **** /* IOPINS0_1 Address: CYREG_PRT1_DR Size (bytes): 10 */
 174:Generated_Source\PSoC5/cyfitter_cfg.c **** #define BS_IOPINS0_1_VAL ((const uint8 CYFAR *)0x48000340u)
 175:Generated_Source\PSoC5/cyfitter_cfg.c **** 
 176:Generated_Source\PSoC5/cyfitter_cfg.c **** /* IOPINS0_2 Address: CYREG_PRT2_DM0 Size (bytes): 8 */
 177:Generated_Source\PSoC5/cyfitter_cfg.c **** #define BS_IOPINS0_2_VAL ((const uint8 CYFAR *)0x4800034Cu)
 178:Generated_Source\PSoC5/cyfitter_cfg.c **** 
 179:Generated_Source\PSoC5/cyfitter_cfg.c **** /* IOPINS0_3 Address: CYREG_PRT3_DR Size (bytes): 10 */
 180:Generated_Source\PSoC5/cyfitter_cfg.c **** #define BS_IOPINS0_3_VAL ((const uint8 CYFAR *)0x48000354u)
 181:Generated_Source\PSoC5/cyfitter_cfg.c **** 
 182:Generated_Source\PSoC5/cyfitter_cfg.c **** 
 183:Generated_Source\PSoC5/cyfitter_cfg.c **** /*******************************************************************************
 184:Generated_Source\PSoC5/cyfitter_cfg.c **** * Function Name: cfg_write_bytes32
 185:Generated_Source\PSoC5/cyfitter_cfg.c **** ********************************************************************************
 186:Generated_Source\PSoC5/cyfitter_cfg.c **** * Summary:
 187:Generated_Source\PSoC5/cyfitter_cfg.c **** *  This function is used for setting up the chip configuration areas that
 188:Generated_Source\PSoC5/cyfitter_cfg.c **** *  contain relatively sparse data.
 189:Generated_Source\PSoC5/cyfitter_cfg.c **** *
 190:Generated_Source\PSoC5/cyfitter_cfg.c **** * Parameters:
 191:Generated_Source\PSoC5/cyfitter_cfg.c **** *   void
 192:Generated_Source\PSoC5/cyfitter_cfg.c **** *
 193:Generated_Source\PSoC5/cyfitter_cfg.c **** * Return:
 194:Generated_Source\PSoC5/cyfitter_cfg.c **** *   void
 195:Generated_Source\PSoC5/cyfitter_cfg.c **** *
 196:Generated_Source\PSoC5/cyfitter_cfg.c **** *******************************************************************************/
 197:Generated_Source\PSoC5/cyfitter_cfg.c **** static void cfg_write_bytes32(const uint32 addr_table[], const cy_cfg_addrvalue_t data_table[]);
 198:Generated_Source\PSoC5/cyfitter_cfg.c **** static void cfg_write_bytes32(const uint32 addr_table[], const cy_cfg_addrvalue_t data_table[])
 199:Generated_Source\PSoC5/cyfitter_cfg.c **** {
 200:Generated_Source\PSoC5/cyfitter_cfg.c **** 	/* For 32-bit little-endian architectures */
 201:Generated_Source\PSoC5/cyfitter_cfg.c **** 	uint32 i, j = 0u;
ARM GAS  C:\Users\adria\AppData\Local\Temp\ccfCeBqn.s 			page 5


 202:Generated_Source\PSoC5/cyfitter_cfg.c **** 	for (i = 0u; i < CY_CFG_BASE_ADDR_COUNT; i++)
 203:Generated_Source\PSoC5/cyfitter_cfg.c **** 	{
 204:Generated_Source\PSoC5/cyfitter_cfg.c **** 		uint32 baseAddr = addr_table[i];
 205:Generated_Source\PSoC5/cyfitter_cfg.c **** 		uint8 count = (uint8)baseAddr;
 206:Generated_Source\PSoC5/cyfitter_cfg.c **** 		baseAddr &= 0xFFFFFF00u;
 207:Generated_Source\PSoC5/cyfitter_cfg.c **** 		while (count != 0u)
 208:Generated_Source\PSoC5/cyfitter_cfg.c **** 		{
 209:Generated_Source\PSoC5/cyfitter_cfg.c **** 			CY_SET_REG8((void *)(baseAddr + data_table[j].offset), data_table[j].value);
 210:Generated_Source\PSoC5/cyfitter_cfg.c **** 			j++;
 211:Generated_Source\PSoC5/cyfitter_cfg.c **** 			count--;
 212:Generated_Source\PSoC5/cyfitter_cfg.c **** 		}
 213:Generated_Source\PSoC5/cyfitter_cfg.c **** 	}
 214:Generated_Source\PSoC5/cyfitter_cfg.c **** }
 215:Generated_Source\PSoC5/cyfitter_cfg.c **** 
 216:Generated_Source\PSoC5/cyfitter_cfg.c **** /*******************************************************************************
 217:Generated_Source\PSoC5/cyfitter_cfg.c **** * Function Name: ClockSetup
 218:Generated_Source\PSoC5/cyfitter_cfg.c **** ********************************************************************************
 219:Generated_Source\PSoC5/cyfitter_cfg.c **** *
 220:Generated_Source\PSoC5/cyfitter_cfg.c **** * Summary:
 221:Generated_Source\PSoC5/cyfitter_cfg.c **** *  Performs the initialization of all of the clocks in the device based on the
 222:Generated_Source\PSoC5/cyfitter_cfg.c **** *  settings in the Clock tab of the DWR.  This includes enabling the requested
 223:Generated_Source\PSoC5/cyfitter_cfg.c **** *  clocks and setting the necessary dividers to produce the desired frequency. 
 224:Generated_Source\PSoC5/cyfitter_cfg.c **** *
 225:Generated_Source\PSoC5/cyfitter_cfg.c **** * Parameters:
 226:Generated_Source\PSoC5/cyfitter_cfg.c **** *  void
 227:Generated_Source\PSoC5/cyfitter_cfg.c **** *
 228:Generated_Source\PSoC5/cyfitter_cfg.c **** * Return:
 229:Generated_Source\PSoC5/cyfitter_cfg.c **** *  void
 230:Generated_Source\PSoC5/cyfitter_cfg.c **** *
 231:Generated_Source\PSoC5/cyfitter_cfg.c **** *******************************************************************************/
 232:Generated_Source\PSoC5/cyfitter_cfg.c **** static void ClockSetup(void);
 233:Generated_Source\PSoC5/cyfitter_cfg.c **** static void ClockSetup(void)
 234:Generated_Source\PSoC5/cyfitter_cfg.c **** {
 235:Generated_Source\PSoC5/cyfitter_cfg.c **** 	uint32 timeout;
 236:Generated_Source\PSoC5/cyfitter_cfg.c **** 	uint8 pllLock;
 237:Generated_Source\PSoC5/cyfitter_cfg.c **** 
 238:Generated_Source\PSoC5/cyfitter_cfg.c **** 
 239:Generated_Source\PSoC5/cyfitter_cfg.c **** 	/* Configure Digital Clocks based on settings from Clock DWR */
 240:Generated_Source\PSoC5/cyfitter_cfg.c **** 	CY_SET_XTND_REG16((void CYFAR *)(CYREG_CLKDIST_DCFG0_CFG0), 0x0019u);
 241:Generated_Source\PSoC5/cyfitter_cfg.c **** 	CY_SET_XTND_REG8((void CYFAR *)(CYREG_CLKDIST_DCFG0_CFG0 + 0x2u), 0x18u);
 242:Generated_Source\PSoC5/cyfitter_cfg.c **** 	CY_SET_XTND_REG16((void CYFAR *)(CYREG_CLKDIST_DCFG1_CFG0), 0x2EDFu);
 243:Generated_Source\PSoC5/cyfitter_cfg.c **** 	CY_SET_XTND_REG8((void CYFAR *)(CYREG_CLKDIST_DCFG1_CFG0 + 0x2u), 0x18u);
 244:Generated_Source\PSoC5/cyfitter_cfg.c **** 
 245:Generated_Source\PSoC5/cyfitter_cfg.c **** 	/* Configure ILO based on settings from Clock DWR */
 246:Generated_Source\PSoC5/cyfitter_cfg.c **** 	CY_SET_XTND_REG8((void CYFAR *)(CYREG_SLOWCLK_ILO_CR0), 0x02u);
 247:Generated_Source\PSoC5/cyfitter_cfg.c **** 	CY_SET_XTND_REG8((void CYFAR *)(CYREG_CLKDIST_CR), 0x08u);
 248:Generated_Source\PSoC5/cyfitter_cfg.c **** 
 249:Generated_Source\PSoC5/cyfitter_cfg.c **** 	/* Configure IMO based on settings from Clock DWR */
 250:Generated_Source\PSoC5/cyfitter_cfg.c **** 	CY_SET_XTND_REG8((void CYFAR *)(CYREG_FASTCLK_IMO_CR), 0x03u);
 251:Generated_Source\PSoC5/cyfitter_cfg.c **** 	CY_SET_XTND_REG8((void CYFAR *)(CYREG_IMO_TR1), (CY_GET_XTND_REG8((void CYFAR *)CYREG_FLSHID_CUST_
 252:Generated_Source\PSoC5/cyfitter_cfg.c **** 
 253:Generated_Source\PSoC5/cyfitter_cfg.c **** 	/* Configure PLL based on settings from Clock DWR */
 254:Generated_Source\PSoC5/cyfitter_cfg.c **** 	CY_SET_XTND_REG16((void CYFAR *)(CYREG_FASTCLK_PLL_P), 0x0008u);
 255:Generated_Source\PSoC5/cyfitter_cfg.c **** 	CY_SET_XTND_REG16((void CYFAR *)(CYREG_FASTCLK_PLL_CFG0), 0x1251u);
 256:Generated_Source\PSoC5/cyfitter_cfg.c **** 	/* Wait up to 250us for the PLL to lock */
 257:Generated_Source\PSoC5/cyfitter_cfg.c **** 	pllLock = 0u;
 258:Generated_Source\PSoC5/cyfitter_cfg.c **** 	for (timeout = 250u / 10u; (timeout > 0u) && (pllLock != 0x03u); timeout--)
ARM GAS  C:\Users\adria\AppData\Local\Temp\ccfCeBqn.s 			page 6


 259:Generated_Source\PSoC5/cyfitter_cfg.c **** 	{ 
 260:Generated_Source\PSoC5/cyfitter_cfg.c **** 		pllLock = 0x03u & ((uint8)((uint8)pllLock << 1) | ((CY_GET_XTND_REG8((void CYFAR *)CYREG_FASTCLK_
 261:Generated_Source\PSoC5/cyfitter_cfg.c **** 		CyDelayCycles(10u * 48u); /* Delay 10us based on 48MHz clock */
 262:Generated_Source\PSoC5/cyfitter_cfg.c **** 	}
 263:Generated_Source\PSoC5/cyfitter_cfg.c **** 	/* If we ran out of time the PLL didn't lock so go to the error function */
 264:Generated_Source\PSoC5/cyfitter_cfg.c **** 	if (timeout == 0u)
 265:Generated_Source\PSoC5/cyfitter_cfg.c **** 	{
 266:Generated_Source\PSoC5/cyfitter_cfg.c **** 		CyClockStartupError(CYCLOCKSTART_PLL_ERROR);
 267:Generated_Source\PSoC5/cyfitter_cfg.c **** 	}
 268:Generated_Source\PSoC5/cyfitter_cfg.c **** 
 269:Generated_Source\PSoC5/cyfitter_cfg.c **** 	/* Configure Bus/Master Clock based on settings from Clock DWR */
 270:Generated_Source\PSoC5/cyfitter_cfg.c **** 	CY_SET_XTND_REG16((void CYFAR *)(CYREG_CLKDIST_MSTR0), 0x0100u);
 271:Generated_Source\PSoC5/cyfitter_cfg.c **** 	CY_SET_XTND_REG8((void CYFAR *)(CYREG_CLKDIST_MSTR0), 0x07u);
 272:Generated_Source\PSoC5/cyfitter_cfg.c **** 	CY_SET_XTND_REG8((void CYFAR *)(CYREG_CLKDIST_BCFG0), 0x00u);
 273:Generated_Source\PSoC5/cyfitter_cfg.c **** 	CY_SET_XTND_REG8((void CYFAR *)(CYREG_CLKDIST_BCFG2), 0x48u);
 274:Generated_Source\PSoC5/cyfitter_cfg.c **** 	CY_SET_XTND_REG8((void CYFAR *)(CYREG_CLKDIST_MSTR0), 0x00u);
 275:Generated_Source\PSoC5/cyfitter_cfg.c **** 	CY_SET_XTND_REG8((void CYFAR *)(CYREG_CLKDIST_LD), 0x02u);
 276:Generated_Source\PSoC5/cyfitter_cfg.c **** 
 277:Generated_Source\PSoC5/cyfitter_cfg.c **** 	CY_SET_XTND_REG8((void CYFAR *)(CYREG_PM_ACT_CFG2), ((CY_GET_XTND_REG8((void CYFAR *)CYREG_PM_ACT_
 278:Generated_Source\PSoC5/cyfitter_cfg.c **** }
 279:Generated_Source\PSoC5/cyfitter_cfg.c **** 
 280:Generated_Source\PSoC5/cyfitter_cfg.c **** 
 281:Generated_Source\PSoC5/cyfitter_cfg.c **** /* Analog API Functions */
 282:Generated_Source\PSoC5/cyfitter_cfg.c **** 
 283:Generated_Source\PSoC5/cyfitter_cfg.c **** 
 284:Generated_Source\PSoC5/cyfitter_cfg.c **** /*******************************************************************************
 285:Generated_Source\PSoC5/cyfitter_cfg.c **** * Function Name: AnalogSetDefault
 286:Generated_Source\PSoC5/cyfitter_cfg.c **** ********************************************************************************
 287:Generated_Source\PSoC5/cyfitter_cfg.c **** *
 288:Generated_Source\PSoC5/cyfitter_cfg.c **** * Summary:
 289:Generated_Source\PSoC5/cyfitter_cfg.c **** *  Sets up the analog portions of the chip to default values based on chip
 290:Generated_Source\PSoC5/cyfitter_cfg.c **** *  configuration options from the project.
 291:Generated_Source\PSoC5/cyfitter_cfg.c **** *
 292:Generated_Source\PSoC5/cyfitter_cfg.c **** * Parameters:
 293:Generated_Source\PSoC5/cyfitter_cfg.c **** *  void
 294:Generated_Source\PSoC5/cyfitter_cfg.c **** *
 295:Generated_Source\PSoC5/cyfitter_cfg.c **** * Return:
 296:Generated_Source\PSoC5/cyfitter_cfg.c **** *  void
 297:Generated_Source\PSoC5/cyfitter_cfg.c **** *
 298:Generated_Source\PSoC5/cyfitter_cfg.c **** *******************************************************************************/
 299:Generated_Source\PSoC5/cyfitter_cfg.c **** static void AnalogSetDefault(void);
 300:Generated_Source\PSoC5/cyfitter_cfg.c **** static void AnalogSetDefault(void)
 301:Generated_Source\PSoC5/cyfitter_cfg.c **** {
 302:Generated_Source\PSoC5/cyfitter_cfg.c **** 	uint8 bg_xover_inl_trim = CY_GET_XTND_REG8((void CYFAR *)(CYREG_FLSHID_MFG_CFG_BG_XOVER_INL_TRIM +
 303:Generated_Source\PSoC5/cyfitter_cfg.c **** 	CY_SET_XTND_REG8((void CYFAR *)(CYREG_BG_DFT0), (bg_xover_inl_trim & 0x07u));
 304:Generated_Source\PSoC5/cyfitter_cfg.c **** 	CY_SET_XTND_REG8((void CYFAR *)(CYREG_BG_DFT1), ((bg_xover_inl_trim >> 4) & 0x0Fu));
 305:Generated_Source\PSoC5/cyfitter_cfg.c **** 	CY_SET_XTND_REG8((void CYFAR *)CYREG_PUMP_CR0, 0x44u);
 306:Generated_Source\PSoC5/cyfitter_cfg.c **** }
 307:Generated_Source\PSoC5/cyfitter_cfg.c **** 
 308:Generated_Source\PSoC5/cyfitter_cfg.c **** 
 309:Generated_Source\PSoC5/cyfitter_cfg.c **** /*******************************************************************************
 310:Generated_Source\PSoC5/cyfitter_cfg.c **** * Function Name: SetAnalogRoutingPumps
 311:Generated_Source\PSoC5/cyfitter_cfg.c **** ********************************************************************************
 312:Generated_Source\PSoC5/cyfitter_cfg.c **** *
 313:Generated_Source\PSoC5/cyfitter_cfg.c **** * Summary:
 314:Generated_Source\PSoC5/cyfitter_cfg.c **** * Enables or disables the analog pumps feeding analog routing switches.
 315:Generated_Source\PSoC5/cyfitter_cfg.c **** * Intended to be called at startup, based on the Vdda system configuration;
ARM GAS  C:\Users\adria\AppData\Local\Temp\ccfCeBqn.s 			page 7


 316:Generated_Source\PSoC5/cyfitter_cfg.c **** * may be called during operation when the user informs us that the Vdda voltage
 317:Generated_Source\PSoC5/cyfitter_cfg.c **** * crossed the pump threshold.
 318:Generated_Source\PSoC5/cyfitter_cfg.c **** *
 319:Generated_Source\PSoC5/cyfitter_cfg.c **** * Parameters:
 320:Generated_Source\PSoC5/cyfitter_cfg.c **** *  enabled - 1 to enable the pumps, 0 to disable the pumps
 321:Generated_Source\PSoC5/cyfitter_cfg.c **** *
 322:Generated_Source\PSoC5/cyfitter_cfg.c **** * Return:
 323:Generated_Source\PSoC5/cyfitter_cfg.c **** *  void
 324:Generated_Source\PSoC5/cyfitter_cfg.c **** *
 325:Generated_Source\PSoC5/cyfitter_cfg.c **** *******************************************************************************/
 326:Generated_Source\PSoC5/cyfitter_cfg.c **** void SetAnalogRoutingPumps(uint8 enabled)
 327:Generated_Source\PSoC5/cyfitter_cfg.c **** {
  28              		.loc 1 327 0
  29              		.cfi_startproc
  30              		@ args = 0, pretend = 0, frame = 0
  31              		@ frame_needed = 0, uses_anonymous_args = 0
  32              		@ link register save eliminated.
  33              	.LVL0:
 328:Generated_Source\PSoC5/cyfitter_cfg.c **** 	uint8 regValue = CY_GET_XTND_REG8((void CYFAR *)CYREG_PUMP_CR0);
  34              		.loc 1 328 0
  35 0000 024A     		ldr	r2, .L2
  36 0002 1378     		ldrb	r3, [r2]	@ zero_extendqisi2
  37 0004 DBB2     		uxtb	r3, r3
  38              	.LVL1:
 329:Generated_Source\PSoC5/cyfitter_cfg.c **** 	if (enabled != 0u)
 330:Generated_Source\PSoC5/cyfitter_cfg.c **** 	{
 331:Generated_Source\PSoC5/cyfitter_cfg.c **** 		regValue |= 0x00u;
 332:Generated_Source\PSoC5/cyfitter_cfg.c **** 	}
 333:Generated_Source\PSoC5/cyfitter_cfg.c **** 	else
 334:Generated_Source\PSoC5/cyfitter_cfg.c **** 	{
 335:Generated_Source\PSoC5/cyfitter_cfg.c **** 		regValue &= (uint8)~0x00u;
 336:Generated_Source\PSoC5/cyfitter_cfg.c **** 	}
 337:Generated_Source\PSoC5/cyfitter_cfg.c **** 	CY_SET_XTND_REG8((void CYFAR *)CYREG_PUMP_CR0, regValue);
  39              		.loc 1 337 0
  40 0006 1370     		strb	r3, [r2]
  41 0008 7047     		bx	lr
  42              	.L3:
  43 000a 00BF     		.align	2
  44              	.L2:
  45 000c 76580040 		.word	1073764470
  46              		.cfi_endproc
  47              	.LFE7:
  48              		.size	SetAnalogRoutingPumps, .-SetAnalogRoutingPumps
  49              		.section	.text.cyfitter_cfg,"ax",%progbits
  50              		.align	1
  51              		.global	cyfitter_cfg
  52              		.thumb
  53              		.thumb_func
  54              		.type	cyfitter_cfg, %function
  55              	cyfitter_cfg:
  56              	.LFB8:
 338:Generated_Source\PSoC5/cyfitter_cfg.c **** }
 339:Generated_Source\PSoC5/cyfitter_cfg.c **** 
 340:Generated_Source\PSoC5/cyfitter_cfg.c **** 
 341:Generated_Source\PSoC5/cyfitter_cfg.c **** 
 342:Generated_Source\PSoC5/cyfitter_cfg.c **** 
 343:Generated_Source\PSoC5/cyfitter_cfg.c **** /*******************************************************************************
ARM GAS  C:\Users\adria\AppData\Local\Temp\ccfCeBqn.s 			page 8


 344:Generated_Source\PSoC5/cyfitter_cfg.c **** * Function Name: cyfitter_cfg
 345:Generated_Source\PSoC5/cyfitter_cfg.c **** ********************************************************************************
 346:Generated_Source\PSoC5/cyfitter_cfg.c **** * Summary:
 347:Generated_Source\PSoC5/cyfitter_cfg.c **** *  This function is called by the start-up code for the selected device. It
 348:Generated_Source\PSoC5/cyfitter_cfg.c **** *  performs all of the necessary device configuration based on the design
 349:Generated_Source\PSoC5/cyfitter_cfg.c **** *  settings.  This includes settings from the Design Wide Resources (DWR) such
 350:Generated_Source\PSoC5/cyfitter_cfg.c **** *  as Clocks and Pins as well as any component configuration that is necessary.
 351:Generated_Source\PSoC5/cyfitter_cfg.c **** *
 352:Generated_Source\PSoC5/cyfitter_cfg.c **** * Parameters:
 353:Generated_Source\PSoC5/cyfitter_cfg.c **** *   void
 354:Generated_Source\PSoC5/cyfitter_cfg.c **** *
 355:Generated_Source\PSoC5/cyfitter_cfg.c **** * Return:
 356:Generated_Source\PSoC5/cyfitter_cfg.c **** *   void
 357:Generated_Source\PSoC5/cyfitter_cfg.c **** *
 358:Generated_Source\PSoC5/cyfitter_cfg.c **** *******************************************************************************/
 359:Generated_Source\PSoC5/cyfitter_cfg.c **** 
 360:Generated_Source\PSoC5/cyfitter_cfg.c **** void cyfitter_cfg(void)
 361:Generated_Source\PSoC5/cyfitter_cfg.c **** {
  57              		.loc 1 361 0
  58              		.cfi_startproc
  59              		@ args = 0, pretend = 0, frame = 0
  60              		@ frame_needed = 0, uses_anonymous_args = 0
  61 0000 F8B5     		push	{r3, r4, r5, r6, r7, lr}
  62              		.cfi_def_cfa_offset 24
  63              		.cfi_offset 3, -24
  64              		.cfi_offset 4, -20
  65              		.cfi_offset 5, -16
  66              		.cfi_offset 6, -12
  67              		.cfi_offset 7, -8
  68              		.cfi_offset 14, -4
 362:Generated_Source\PSoC5/cyfitter_cfg.c **** #ifdef CYGlobalIntDisable
 363:Generated_Source\PSoC5/cyfitter_cfg.c **** 	/* Disable interrupts by default. Let user enable if/when they want. */
 364:Generated_Source\PSoC5/cyfitter_cfg.c **** 	CYGlobalIntDisable
  69              		.loc 1 364 0
  70              		.syntax unified
  71              	@ 364 "Generated_Source\PSoC5\cyfitter_cfg.c" 1
  72 0002 72B6     		CPSID   i
  73              	@ 0 "" 2
 365:Generated_Source\PSoC5/cyfitter_cfg.c **** #endif
 366:Generated_Source\PSoC5/cyfitter_cfg.c **** 
 367:Generated_Source\PSoC5/cyfitter_cfg.c **** 	/* Enable/Disable Debug functionality based on settings from System DWR */
 368:Generated_Source\PSoC5/cyfitter_cfg.c **** 	CY_SET_XTND_REG8((void CYFAR *)CYREG_MLOGIC_DEBUG, (CY_GET_XTND_REG8((void CYFAR *)CYREG_MLOGIC_DE
  74              		.loc 1 368 0
  75              		.thumb
  76              		.syntax unified
  77 0004 674A     		ldr	r2, .L22
  78              	.LBB44:
  79              	.LBB45:
 369:Generated_Source\PSoC5/cyfitter_cfg.c **** 
 370:Generated_Source\PSoC5/cyfitter_cfg.c **** 	{
 371:Generated_Source\PSoC5/cyfitter_cfg.c **** 
 372:Generated_Source\PSoC5/cyfitter_cfg.c **** 		CYPACKED typedef struct {
 373:Generated_Source\PSoC5/cyfitter_cfg.c **** 			void CYFAR *address;
 374:Generated_Source\PSoC5/cyfitter_cfg.c **** 			uint16 size;
 375:Generated_Source\PSoC5/cyfitter_cfg.c **** 		} CYPACKED_ATTR cfg_memset_t;
 376:Generated_Source\PSoC5/cyfitter_cfg.c **** 
 377:Generated_Source\PSoC5/cyfitter_cfg.c **** 
ARM GAS  C:\Users\adria\AppData\Local\Temp\ccfCeBqn.s 			page 9


 378:Generated_Source\PSoC5/cyfitter_cfg.c **** 		CYPACKED typedef struct {
 379:Generated_Source\PSoC5/cyfitter_cfg.c **** 			void CYFAR *dest;
 380:Generated_Source\PSoC5/cyfitter_cfg.c **** 			const void CYFAR *src;
 381:Generated_Source\PSoC5/cyfitter_cfg.c **** 			uint16 size;
 382:Generated_Source\PSoC5/cyfitter_cfg.c **** 		} CYPACKED_ATTR cfg_memcpy_t;
 383:Generated_Source\PSoC5/cyfitter_cfg.c **** 
 384:Generated_Source\PSoC5/cyfitter_cfg.c **** 		static const cfg_memset_t CYCODE cfg_memset_list[] = {
 385:Generated_Source\PSoC5/cyfitter_cfg.c **** 			/* address, size */
 386:Generated_Source\PSoC5/cyfitter_cfg.c **** 			{(void CYFAR *)(CYREG_TMR0_CFG0), 12u},
 387:Generated_Source\PSoC5/cyfitter_cfg.c **** 			{(void CYFAR *)(CYREG_PRT0_DR), 16u},
 388:Generated_Source\PSoC5/cyfitter_cfg.c **** 			{(void CYFAR *)(CYREG_PRT4_DR), 48u},
 389:Generated_Source\PSoC5/cyfitter_cfg.c **** 			{(void CYFAR *)(CYREG_PRT15_DR), 16u},
 390:Generated_Source\PSoC5/cyfitter_cfg.c **** 			{(void CYFAR *)(CYDEV_UCFG_B0_P0_U0_BASE), 4096u},
 391:Generated_Source\PSoC5/cyfitter_cfg.c **** 			{(void CYFAR *)(CYDEV_UCFG_B1_P2_U0_BASE), 1024u},
 392:Generated_Source\PSoC5/cyfitter_cfg.c **** 			{(void CYFAR *)(CYDEV_UCFG_B1_P4_U1_BASE), 896u},
 393:Generated_Source\PSoC5/cyfitter_cfg.c **** 			{(void CYFAR *)(CYDEV_UCFG_DSI0_BASE), 2560u},
 394:Generated_Source\PSoC5/cyfitter_cfg.c **** 			{(void CYFAR *)(CYDEV_UCFG_DSI12_BASE), 512u},
 395:Generated_Source\PSoC5/cyfitter_cfg.c **** 			{(void CYFAR *)(CYREG_BCTL0_MDCLK_EN), 32u},
 396:Generated_Source\PSoC5/cyfitter_cfg.c **** 		};
 397:Generated_Source\PSoC5/cyfitter_cfg.c **** 
 398:Generated_Source\PSoC5/cyfitter_cfg.c **** 		static const cfg_memcpy_t CYCODE cfg_memcpy_list [] = {
 399:Generated_Source\PSoC5/cyfitter_cfg.c **** 			/* dest, src, size */
 400:Generated_Source\PSoC5/cyfitter_cfg.c **** 			{(void CYFAR *)(CYDEV_PICU_INTTYPE_PICU3_BASE), BS_PICU_3_VAL, 8u},
 401:Generated_Source\PSoC5/cyfitter_cfg.c **** 			{(void CYFAR *)(CYDEV_PRTDSI_PRT12_BASE), BS_IOPORT_7_VAL, 6u},
 402:Generated_Source\PSoC5/cyfitter_cfg.c **** 			{(void CYFAR *)(CYDEV_UCFG_B1_P4_U0_BASE), BS_UDB_0_1_1_CONFIG_VAL, 128u},
 403:Generated_Source\PSoC5/cyfitter_cfg.c **** 		};
 404:Generated_Source\PSoC5/cyfitter_cfg.c **** 
 405:Generated_Source\PSoC5/cyfitter_cfg.c **** 		uint8 CYDATA i;
 406:Generated_Source\PSoC5/cyfitter_cfg.c **** 
 407:Generated_Source\PSoC5/cyfitter_cfg.c **** 		/* Zero out critical memory blocks before beginning configuration */
 408:Generated_Source\PSoC5/cyfitter_cfg.c **** 		for (i = 0u; i < (sizeof(cfg_memset_list)/sizeof(cfg_memset_list[0])); i++)
 409:Generated_Source\PSoC5/cyfitter_cfg.c **** 		{
 410:Generated_Source\PSoC5/cyfitter_cfg.c **** 			const cfg_memset_t CYCODE * CYDATA ms = &cfg_memset_list[i];
 411:Generated_Source\PSoC5/cyfitter_cfg.c **** 			CYMEMZERO(ms->address, (size_t)(uint32)(ms->size));
  80              		.loc 1 411 0
  81 0006 684D     		ldr	r5, .L22+4
  82              	.LBE45:
  83              	.LBE44:
 368:Generated_Source\PSoC5/cyfitter_cfg.c **** 
  84              		.loc 1 368 0
  85 0008 1378     		ldrb	r3, [r2]	@ zero_extendqisi2
  86 000a 0024     		movs	r4, #0
  87 000c 43F00403 		orr	r3, r3, #4
  88 0010 1370     		strb	r3, [r2]
  89              	.LVL2:
  90              	.LBB57:
  91              	.LBB48:
  92              		.loc 1 411 0
  93 0012 0627     		movs	r7, #6
  94              	.LVL3:
  95              	.L5:
  96              		.loc 1 411 0 is_stmt 0 discriminator 3
  97 0014 07FB0453 		mla	r3, r7, r4, r5
  98              	.LBB46:
  99              	.LBB47:
  79:Generated_Source\PSoC5/cyfitter_cfg.c **** }
 100              		.loc 1 79 0 is_stmt 1 discriminator 3
ARM GAS  C:\Users\adria\AppData\Local\Temp\ccfCeBqn.s 			page 10


 101 0018 0021     		movs	r1, #0
 102 001a 9A88     		ldrh	r2, [r3, #4]	@ unaligned
 103 001c 1868     		ldr	r0, [r3]	@ unaligned
 104 001e 0134     		adds	r4, r4, #1
 105              	.LVL4:
 106 0020 FFF7FEFF 		bl	memset
 107              	.LVL5:
 108              	.LBE47:
 109              	.LBE46:
 110              	.LBE48:
 408:Generated_Source\PSoC5/cyfitter_cfg.c **** 		{
 111              		.loc 1 408 0 discriminator 3
 112 0024 0A2C     		cmp	r4, #10
 113 0026 604E     		ldr	r6, .L22+4
 114 0028 F4D1     		bne	.L5
 115 002a 0025     		movs	r5, #0
 116              	.L6:
 117              	.LVL6:
 118              	.LBB49:
 412:Generated_Source\PSoC5/cyfitter_cfg.c **** 		}
 413:Generated_Source\PSoC5/cyfitter_cfg.c **** 
 414:Generated_Source\PSoC5/cyfitter_cfg.c **** 		/* Copy device configuration data into registers */
 415:Generated_Source\PSoC5/cyfitter_cfg.c **** 		for (i = 0u; i < (sizeof(cfg_memcpy_list)/sizeof(cfg_memcpy_list[0])); i++)
 416:Generated_Source\PSoC5/cyfitter_cfg.c **** 		{
 417:Generated_Source\PSoC5/cyfitter_cfg.c **** 			const cfg_memcpy_t CYCODE * CYDATA mc = &cfg_memcpy_list[i];
 418:Generated_Source\PSoC5/cyfitter_cfg.c **** 			void * CYDATA destPtr = mc->dest;
 119              		.loc 1 418 0 discriminator 3
 120 002c 04FB0562 		mla	r2, r4, r5, r6
 121 0030 1346     		mov	r3, r2
 122 0032 53F83C0F 		ldr	r0, [r3, #60]!	@ unaligned
 123              	.LBB50:
 124              	.LBB51:
  86:Generated_Source\PSoC5/cyfitter_cfg.c **** }
 125              		.loc 1 86 0 discriminator 3
 126 0036 B2F84420 		ldrh	r2, [r2, #68]	@ unaligned
 127 003a 5968     		ldr	r1, [r3, #4]	@ unaligned
 128 003c 0135     		adds	r5, r5, #1
 129              	.LVL7:
 130 003e FFF7FEFF 		bl	memcpy
 131              	.LVL8:
 132              	.LBE51:
 133              	.LBE50:
 134              	.LBE49:
 415:Generated_Source\PSoC5/cyfitter_cfg.c **** 		{
 135              		.loc 1 415 0 discriminator 3
 136 0042 032D     		cmp	r5, #3
 137 0044 F2D1     		bne	.L6
 138 0046 5948     		ldr	r0, .L22+8
 139              	.LBB52:
 140              	.LBB53:
 202:Generated_Source\PSoC5/cyfitter_cfg.c **** 	{
 141              		.loc 1 202 0
 142 0048 594D     		ldr	r5, .L22+12
 143              	.LVL9:
 144              	.LBE53:
 145              	.LBE52:
 146 004a 0024     		movs	r4, #0
ARM GAS  C:\Users\adria\AppData\Local\Temp\ccfCeBqn.s 			page 11


 147              	.LVL10:
 148              	.L9:
 149              	.LBB56:
 150              	.LBB55:
 151              	.LBB54:
 204:Generated_Source\PSoC5/cyfitter_cfg.c **** 		uint8 count = (uint8)baseAddr;
 152              		.loc 1 204 0
 153 004c 50F8041F 		ldr	r1, [r0, #4]!
 154              	.LVL11:
 155 0050 04F11053 		add	r3, r4, #603979776
 156 0054 03F12202 		add	r2, r3, #34
 206:Generated_Source\PSoC5/cyfitter_cfg.c **** 		while (count != 0u)
 157              		.loc 1 206 0
 158 0058 21F0FF06 		bic	r6, r1, #255
 159              	.LVL12:
 160 005c 2333     		adds	r3, r3, #35
 161 005e C9B2     		uxtb	r1, r1
 162 0060 0B44     		add	r3, r3, r1
 163 0062 5200     		lsls	r2, r2, #1
 164 0064 5B00     		lsls	r3, r3, #1
 165              	.LVL13:
 166              	.L7:
 167 0066 0232     		adds	r2, r2, #2
 207:Generated_Source\PSoC5/cyfitter_cfg.c **** 		{
 168              		.loc 1 207 0
 169 0068 9A42     		cmp	r2, r3
 170 006a 06D0     		beq	.L21
 209:Generated_Source\PSoC5/cyfitter_cfg.c **** 			j++;
 171              		.loc 1 209 0
 172 006c 12F8027C 		ldrb	r7, [r2, #-2]	@ zero_extendqisi2
 173 0070 12F801EC 		ldrb	lr, [r2, #-1]	@ zero_extendqisi2
 174 0074 07F806E0 		strb	lr, [r7, r6]
 175 0078 F5E7     		b	.L7
 176              	.L21:
 177              	.LBE54:
 202:Generated_Source\PSoC5/cyfitter_cfg.c **** 	{
 178              		.loc 1 202 0
 179 007a A842     		cmp	r0, r5
 180 007c 0C44     		add	r4, r4, r1
 181              	.LVL14:
 182 007e E5D1     		bne	.L9
 183              	.LVL15:
 184              	.LBE55:
 185              	.LBE56:
 419:Generated_Source\PSoC5/cyfitter_cfg.c **** 			const void * CYDATA srcPtr = mc->src;
 420:Generated_Source\PSoC5/cyfitter_cfg.c **** 			uint16 CYDATA numBytes = mc->size;
 421:Generated_Source\PSoC5/cyfitter_cfg.c **** 			CYCONFIGCPY(destPtr, srcPtr, numBytes);
 422:Generated_Source\PSoC5/cyfitter_cfg.c **** 		}
 423:Generated_Source\PSoC5/cyfitter_cfg.c **** 
 424:Generated_Source\PSoC5/cyfitter_cfg.c **** 		cfg_write_bytes32(cy_cfg_addr_table, cy_cfg_data_table);
 425:Generated_Source\PSoC5/cyfitter_cfg.c **** 
 426:Generated_Source\PSoC5/cyfitter_cfg.c **** 		/* Enable digital routing */
 427:Generated_Source\PSoC5/cyfitter_cfg.c **** 		CY_SET_XTND_REG8((void CYFAR *)CYREG_BCTL0_BANK_CTL, CY_GET_XTND_REG8((void CYFAR *)CYREG_BCTL0_B
 186              		.loc 1 427 0
 187 0080 4C4A     		ldr	r2, .L22+16
 428:Generated_Source\PSoC5/cyfitter_cfg.c **** 		CY_SET_XTND_REG8((void CYFAR *)CYREG_BCTL1_BANK_CTL, CY_GET_XTND_REG8((void CYFAR *)CYREG_BCTL1_B
 429:Generated_Source\PSoC5/cyfitter_cfg.c **** 
ARM GAS  C:\Users\adria\AppData\Local\Temp\ccfCeBqn.s 			page 12


 430:Generated_Source\PSoC5/cyfitter_cfg.c **** 		/* Enable UDB array */
 431:Generated_Source\PSoC5/cyfitter_cfg.c **** 		CY_SET_XTND_REG8((void CYFAR *)CYREG_PM_ACT_CFG0, CY_GET_XTND_REG8((void CYFAR *)CYREG_PM_ACT_CFG
 188              		.loc 1 431 0
 189 0082 4D4C     		ldr	r4, .L22+20
 427:Generated_Source\PSoC5/cyfitter_cfg.c **** 		CY_SET_XTND_REG8((void CYFAR *)CYREG_BCTL1_BANK_CTL, CY_GET_XTND_REG8((void CYFAR *)CYREG_BCTL1_B
 190              		.loc 1 427 0
 191 0084 1378     		ldrb	r3, [r2]	@ zero_extendqisi2
 192              	.LBE57:
 193              	.LBB58:
 194              	.LBB59:
  86:Generated_Source\PSoC5/cyfitter_cfg.c **** }
 195              		.loc 1 86 0
 196 0086 4D4D     		ldr	r5, .L22+24
 197              	.LBE59:
 198              	.LBE58:
 199              	.LBB62:
 427:Generated_Source\PSoC5/cyfitter_cfg.c **** 		CY_SET_XTND_REG8((void CYFAR *)CYREG_BCTL1_BANK_CTL, CY_GET_XTND_REG8((void CYFAR *)CYREG_BCTL1_B
 200              		.loc 1 427 0
 201 0088 43F00203 		orr	r3, r3, #2
 202 008c 1370     		strb	r3, [r2]
 428:Generated_Source\PSoC5/cyfitter_cfg.c **** 		CY_SET_XTND_REG8((void CYFAR *)CYREG_BCTL1_BANK_CTL, CY_GET_XTND_REG8((void CYFAR *)CYREG_BCTL1_B
 203              		.loc 1 428 0
 204 008e 137C     		ldrb	r3, [r2, #16]	@ zero_extendqisi2
 205              	.LBE62:
 206              	.LBB63:
 207              	.LBB64:
 260:Generated_Source\PSoC5/cyfitter_cfg.c **** 		CyDelayCycles(10u * 48u); /* Delay 10us based on 48MHz clock */
 208              		.loc 1 260 0
 209 0090 4B4F     		ldr	r7, .L22+28
 210              	.LBE64:
 211              	.LBE63:
 212              	.LBB70:
 428:Generated_Source\PSoC5/cyfitter_cfg.c **** 
 213              		.loc 1 428 0
 214 0092 43F00203 		orr	r3, r3, #2
 215 0096 1374     		strb	r3, [r2, #16]
 216              		.loc 1 431 0
 217 0098 2378     		ldrb	r3, [r4]	@ zero_extendqisi2
 432:Generated_Source\PSoC5/cyfitter_cfg.c **** 		CY_SET_XTND_REG8((void CYFAR *)CYREG_PM_AVAIL_CR2, CY_GET_XTND_REG8((void CYFAR *)CYREG_PM_AVAIL_
 218              		.loc 1 432 0
 219 009a A2F58632 		sub	r2, r2, #68608
 431:Generated_Source\PSoC5/cyfitter_cfg.c **** 		CY_SET_XTND_REG8((void CYFAR *)CYREG_PM_AVAIL_CR2, CY_GET_XTND_REG8((void CYFAR *)CYREG_PM_AVAIL_
 220              		.loc 1 431 0
 221 009e 43F04003 		orr	r3, r3, #64
 222 00a2 2370     		strb	r3, [r4]
 223              		.loc 1 432 0
 224 00a4 413A     		subs	r2, r2, #65
 225 00a6 1378     		ldrb	r3, [r2]	@ zero_extendqisi2
 226              	.LBE70:
 227              	.LBB71:
 228              	.LBB65:
 257:Generated_Source\PSoC5/cyfitter_cfg.c **** 	for (timeout = 250u / 10u; (timeout > 0u) && (pllLock != 0x03u); timeout--)
 229              		.loc 1 257 0
 230 00a8 0026     		movs	r6, #0
 231              	.LBE65:
 232              	.LBE71:
 233              	.LBB72:
ARM GAS  C:\Users\adria\AppData\Local\Temp\ccfCeBqn.s 			page 13


 234              		.loc 1 432 0
 235 00aa 43F01003 		orr	r3, r3, #16
 236 00ae 1370     		strb	r3, [r2]
 237              	.LVL16:
 238              	.LBE72:
 239              	.LBB73:
 240              	.LBB74:
  86:Generated_Source\PSoC5/cyfitter_cfg.c **** }
 241              		.loc 1 86 0
 242 00b0 444A     		ldr	r2, .L22+32
 243 00b2 454B     		ldr	r3, .L22+36
 244 00b4 07CA     		ldmia	r2, {r0, r1, r2}
 245 00b6 03C3     		stmia	r3!, {r0, r1}
 246 00b8 1A80     		strh	r2, [r3]	@ movhi
 247              	.LVL17:
 248              	.LBE74:
 249              	.LBE73:
 250              	.LBB75:
 251              	.LBB76:
 252 00ba 444A     		ldr	r2, .L22+40
 253 00bc B83B     		subs	r3, r3, #184
 254 00be 07CA     		ldmia	r2, {r0, r1, r2}
 255 00c0 03C3     		stmia	r3!, {r0, r1}
 256 00c2 1A80     		strh	r2, [r3]	@ movhi
 257              	.LVL18:
 258              	.LBE76:
 259              	.LBE75:
 260              	.LBB77:
 261              	.LBB78:
 262 00c4 424A     		ldr	r2, .L22+44
 263 00c6 434B     		ldr	r3, .L22+48
 264 00c8 03CB     		ldmia	r3!, {r0, r1}
 265 00ca 1060     		str	r0, [r2]	@ unaligned
 266 00cc 5160     		str	r1, [r2, #4]	@ unaligned
 267              	.LVL19:
 268              	.LBE78:
 269              	.LBE77:
 270              	.LBB79:
 271              	.LBB60:
 272 00ce 93E80700 		ldmia	r3, {r0, r1, r2}
 273 00d2 03C5     		stmia	r5!, {r0, r1}
 274              	.LBE60:
 275              	.LBE79:
 276              	.LBB80:
 277              	.LBB66:
 242:Generated_Source\PSoC5/cyfitter_cfg.c **** 	CY_SET_XTND_REG8((void CYFAR *)(CYREG_CLKDIST_DCFG1_CFG0 + 0x2u), 0x18u);
 278              		.loc 1 242 0
 279 00d4 42F6DF61 		movw	r1, #11999
 280              	.LBE66:
 281              	.LBE80:
 282              	.LBB81:
 283              	.LBB61:
  86:Generated_Source\PSoC5/cyfitter_cfg.c **** }
 284              		.loc 1 86 0
 285 00d8 2A80     		strh	r2, [r5]	@ movhi
 286              	.LVL20:
 287              	.LBE61:
ARM GAS  C:\Users\adria\AppData\Local\Temp\ccfCeBqn.s 			page 14


 288              	.LBE81:
 433:Generated_Source\PSoC5/cyfitter_cfg.c **** 	}
 434:Generated_Source\PSoC5/cyfitter_cfg.c **** 
 435:Generated_Source\PSoC5/cyfitter_cfg.c **** 
 436:Generated_Source\PSoC5/cyfitter_cfg.c **** 	/* Perform second pass device configuration. These items must be configured in specific order afte
 437:Generated_Source\PSoC5/cyfitter_cfg.c **** 	CYCONFIGCPY((void CYFAR *)(CYREG_PRT12_DR), (const void CYFAR *)(BS_IOPINS0_7_VAL), 10u);
 438:Generated_Source\PSoC5/cyfitter_cfg.c **** 	CYCONFIGCPY((void CYFAR *)(CYREG_PRT1_DR), (const void CYFAR *)(BS_IOPINS0_1_VAL), 10u);
 439:Generated_Source\PSoC5/cyfitter_cfg.c **** 	CYCONFIGCPY((void CYFAR *)(CYREG_PRT2_DM0), (const void CYFAR *)(BS_IOPINS0_2_VAL), 8u);
 440:Generated_Source\PSoC5/cyfitter_cfg.c **** 	CYCONFIGCPY((void CYFAR *)(CYREG_PRT3_DR), (const void CYFAR *)(BS_IOPINS0_3_VAL), 10u);
 441:Generated_Source\PSoC5/cyfitter_cfg.c **** 	/* Switch Boost to the precision bandgap reference from its internal reference */
 442:Generated_Source\PSoC5/cyfitter_cfg.c **** 	CY_SET_REG8((void CYXDATA *)CYREG_BOOST_CR2, (CY_GET_REG8((void CYXDATA *)CYREG_BOOST_CR2) | 0x08u
 289              		.loc 1 442 0
 290 00da 3F4A     		ldr	r2, .L22+52
 291              	.LBB82:
 292              	.LBB67:
 240:Generated_Source\PSoC5/cyfitter_cfg.c **** 	CY_SET_XTND_REG8((void CYFAR *)(CYREG_CLKDIST_DCFG0_CFG0 + 0x2u), 0x18u);
 293              		.loc 1 240 0
 294 00dc 1925     		movs	r5, #25
 295              	.LBE67:
 296              	.LBE82:
 297              		.loc 1 442 0
 298 00de 1378     		ldrb	r3, [r2]	@ zero_extendqisi2
 299 00e0 43F00803 		orr	r3, r3, #8
 300 00e4 1370     		strb	r3, [r2]
 443:Generated_Source\PSoC5/cyfitter_cfg.c **** 
 444:Generated_Source\PSoC5/cyfitter_cfg.c **** 	/* Set Flash Cycles based on max possible frequency in case a glitch occurs during ClockSetup(). *
 445:Generated_Source\PSoC5/cyfitter_cfg.c **** 	CY_SET_XTND_REG8((void CYFAR *)(CYREG_CACHE_CC_CTL), (((CYDEV_INSTRUCT_CACHE_ENABLED) != 0) ? 0x61
 301              		.loc 1 445 0
 302 00e6 3D4B     		ldr	r3, .L22+56
 303 00e8 6122     		movs	r2, #97
 304 00ea 1A70     		strb	r2, [r3]
 305              	.LBB83:
 306              	.LBB68:
 241:Generated_Source\PSoC5/cyfitter_cfg.c **** 	CY_SET_XTND_REG16((void CYFAR *)(CYREG_CLKDIST_DCFG1_CFG0), 0x2EDFu);
 307              		.loc 1 241 0
 308 00ec 3C4A     		ldr	r2, .L22+60
 240:Generated_Source\PSoC5/cyfitter_cfg.c **** 	CY_SET_XTND_REG8((void CYFAR *)(CYREG_CLKDIST_DCFG0_CFG0 + 0x2u), 0x18u);
 309              		.loc 1 240 0
 310 00ee A3F5F063 		sub	r3, r3, #1920
 311 00f2 1D80     		strh	r5, [r3]	@ movhi
 241:Generated_Source\PSoC5/cyfitter_cfg.c **** 	CY_SET_XTND_REG16((void CYFAR *)(CYREG_CLKDIST_DCFG1_CFG0), 0x2EDFu);
 312              		.loc 1 241 0
 313 00f4 1823     		movs	r3, #24
 314 00f6 1370     		strb	r3, [r2]
 242:Generated_Source\PSoC5/cyfitter_cfg.c **** 	CY_SET_XTND_REG8((void CYFAR *)(CYREG_CLKDIST_DCFG1_CFG0 + 0x2u), 0x18u);
 315              		.loc 1 242 0
 316 00f8 5180     		strh	r1, [r2, #2]	@ movhi
 243:Generated_Source\PSoC5/cyfitter_cfg.c **** 
 317              		.loc 1 243 0
 318 00fa 1371     		strb	r3, [r2, #4]
 246:Generated_Source\PSoC5/cyfitter_cfg.c **** 	CY_SET_XTND_REG8((void CYFAR *)(CYREG_CLKDIST_CR), 0x08u);
 319              		.loc 1 246 0
 320 00fc 394B     		ldr	r3, .L22+64
 321 00fe 0222     		movs	r2, #2
 322 0100 1A70     		strb	r2, [r3]
 250:Generated_Source\PSoC5/cyfitter_cfg.c **** 	CY_SET_XTND_REG8((void CYFAR *)(CYREG_IMO_TR1), (CY_GET_XTND_REG8((void CYFAR *)CYREG_FLSHID_CUST_
 323              		.loc 1 250 0
ARM GAS  C:\Users\adria\AppData\Local\Temp\ccfCeBqn.s 			page 15


 324 0102 0321     		movs	r1, #3
 247:Generated_Source\PSoC5/cyfitter_cfg.c **** 
 325              		.loc 1 247 0
 326 0104 0822     		movs	r2, #8
 327 0106 4FF04023 		mov	r3, #1073758208
 328 010a 1A70     		strb	r2, [r3]
 250:Generated_Source\PSoC5/cyfitter_cfg.c **** 	CY_SET_XTND_REG8((void CYFAR *)(CYREG_IMO_TR1), (CY_GET_XTND_REG8((void CYFAR *)CYREG_FLSHID_CUST_
 329              		.loc 1 250 0
 330 010c 83F80012 		strb	r1, [r3, #512]
 251:Generated_Source\PSoC5/cyfitter_cfg.c **** 
 331              		.loc 1 251 0
 332 0110 354B     		ldr	r3, .L22+68
 333 0112 3649     		ldr	r1, .L22+72
 334 0114 1B78     		ldrb	r3, [r3]	@ zero_extendqisi2
 335 0116 DBB2     		uxtb	r3, r3
 336 0118 0B70     		strb	r3, [r1]
 254:Generated_Source\PSoC5/cyfitter_cfg.c **** 	CY_SET_XTND_REG16((void CYFAR *)(CYREG_FASTCLK_PLL_CFG0), 0x1251u);
 337              		.loc 1 254 0
 338 011a 354B     		ldr	r3, .L22+76
 339 011c 1A80     		strh	r2, [r3]	@ movhi
 255:Generated_Source\PSoC5/cyfitter_cfg.c **** 	/* Wait up to 250us for the PLL to lock */
 340              		.loc 1 255 0
 341 011e 41F25122 		movw	r2, #4689
 342 0122 23F8022C 		strh	r2, [r3, #-2]	@ movhi
 343              	.LVL21:
 344              	.L11:
 260:Generated_Source\PSoC5/cyfitter_cfg.c **** 		CyDelayCycles(10u * 48u); /* Delay 10us based on 48MHz clock */
 345              		.loc 1 260 0
 346 0126 3B78     		ldrb	r3, [r7]	@ zero_extendqisi2
 261:Generated_Source\PSoC5/cyfitter_cfg.c **** 	}
 347              		.loc 1 261 0
 348 0128 4FF4F070 		mov	r0, #480
 260:Generated_Source\PSoC5/cyfitter_cfg.c **** 		CyDelayCycles(10u * 48u); /* Delay 10us based on 48MHz clock */
 349              		.loc 1 260 0
 350 012c 03F00103 		and	r3, r3, #1
 351 0130 43EA4606 		orr	r6, r3, r6, lsl #1
 352              	.LVL22:
 261:Generated_Source\PSoC5/cyfitter_cfg.c **** 	}
 353              		.loc 1 261 0
 354 0134 FFF7FEFF 		bl	CyDelayCycles
 355              	.LVL23:
 258:Generated_Source\PSoC5/cyfitter_cfg.c **** 	{ 
 356              		.loc 1 258 0
 357 0138 013D     		subs	r5, r5, #1
 358              	.LVL24:
 260:Generated_Source\PSoC5/cyfitter_cfg.c **** 		CyDelayCycles(10u * 48u); /* Delay 10us based on 48MHz clock */
 359              		.loc 1 260 0
 360 013a 06F00306 		and	r6, r6, #3
 361              	.LVL25:
 258:Generated_Source\PSoC5/cyfitter_cfg.c **** 	{ 
 362              		.loc 1 258 0
 363 013e 2FD0     		beq	.L10
 364              	.LVL26:
 365 0140 032E     		cmp	r6, #3
 366 0142 F0D1     		bne	.L11
 270:Generated_Source\PSoC5/cyfitter_cfg.c **** 	CY_SET_XTND_REG8((void CYFAR *)(CYREG_CLKDIST_MSTR0), 0x07u);
 367              		.loc 1 270 0
ARM GAS  C:\Users\adria\AppData\Local\Temp\ccfCeBqn.s 			page 16


 368 0144 2B4B     		ldr	r3, .L22+80
 369 0146 4FF48072 		mov	r2, #256
 370 014a 1A80     		strh	r2, [r3]	@ movhi
 272:Generated_Source\PSoC5/cyfitter_cfg.c **** 	CY_SET_XTND_REG8((void CYFAR *)(CYREG_CLKDIST_BCFG2), 0x48u);
 371              		.loc 1 272 0
 372 014c 2A49     		ldr	r1, .L22+84
 271:Generated_Source\PSoC5/cyfitter_cfg.c **** 	CY_SET_XTND_REG8((void CYFAR *)(CYREG_CLKDIST_BCFG0), 0x00u);
 373              		.loc 1 271 0
 374 014e 0722     		movs	r2, #7
 375 0150 1A70     		strb	r2, [r3]
 273:Generated_Source\PSoC5/cyfitter_cfg.c **** 	CY_SET_XTND_REG8((void CYFAR *)(CYREG_CLKDIST_MSTR0), 0x00u);
 376              		.loc 1 273 0
 377 0152 4820     		movs	r0, #72
 272:Generated_Source\PSoC5/cyfitter_cfg.c **** 	CY_SET_XTND_REG8((void CYFAR *)(CYREG_CLKDIST_BCFG2), 0x48u);
 378              		.loc 1 272 0
 379 0154 0022     		movs	r2, #0
 380 0156 0A70     		strb	r2, [r1]
 273:Generated_Source\PSoC5/cyfitter_cfg.c **** 	CY_SET_XTND_REG8((void CYFAR *)(CYREG_CLKDIST_MSTR0), 0x00u);
 381              		.loc 1 273 0
 382 0158 8870     		strb	r0, [r1, #2]
 274:Generated_Source\PSoC5/cyfitter_cfg.c **** 	CY_SET_XTND_REG8((void CYFAR *)(CYREG_CLKDIST_LD), 0x02u);
 383              		.loc 1 274 0
 384 015a 1A70     		strb	r2, [r3]
 275:Generated_Source\PSoC5/cyfitter_cfg.c **** 
 385              		.loc 1 275 0
 386 015c 0222     		movs	r2, #2
 387 015e 03F8032C 		strb	r2, [r3, #-3]
 277:Generated_Source\PSoC5/cyfitter_cfg.c **** }
 388              		.loc 1 277 0
 389 0162 264A     		ldr	r2, .L22+88
 390              	.LBE68:
 391              	.LBE83:
 392              	.LBB84:
 393              	.LBB85:
  86:Generated_Source\PSoC5/cyfitter_cfg.c **** }
 394              		.loc 1 86 0
 395 0164 264D     		ldr	r5, .L22+92
 396              	.LVL27:
 397              	.LBE85:
 398              	.LBE84:
 399              	.LBB87:
 400              	.LBB69:
 277:Generated_Source\PSoC5/cyfitter_cfg.c **** }
 401              		.loc 1 277 0
 402 0166 1378     		ldrb	r3, [r2]	@ zero_extendqisi2
 403 0168 43F00303 		orr	r3, r3, #3
 404 016c 1370     		strb	r3, [r2]
 405              	.LVL28:
 406              	.LBE69:
 407              	.LBE87:
 446:Generated_Source\PSoC5/cyfitter_cfg.c **** 	/* Setup clocks based on selections from Clock DWR */
 447:Generated_Source\PSoC5/cyfitter_cfg.c **** 	ClockSetup();
 448:Generated_Source\PSoC5/cyfitter_cfg.c **** 	/* Set Flash Cycles based on newly configured 24.00MHz Bus Clock. */
 449:Generated_Source\PSoC5/cyfitter_cfg.c **** 	CY_SET_XTND_REG8((void CYFAR *)(CYREG_CACHE_CC_CTL), (((CYDEV_INSTRUCT_CACHE_ENABLED) != 0) ? 0x81
 408              		.loc 1 449 0
 409 016e 1B4B     		ldr	r3, .L22+56
 410 0170 8122     		movs	r2, #129
ARM GAS  C:\Users\adria\AppData\Local\Temp\ccfCeBqn.s 			page 17


 411 0172 1A70     		strb	r2, [r3]
 450:Generated_Source\PSoC5/cyfitter_cfg.c **** 	CY_SET_XTND_REG8((void CYFAR *)(CYREG_PANTHER_WAITPIPE), 0x01u);
 412              		.loc 1 450 0
 413 0174 03F5F723 		add	r3, r3, #505856
 414 0178 0122     		movs	r2, #1
 415 017a 0433     		adds	r3, r3, #4
 416 017c 1A70     		strb	r2, [r3]
 417              	.LBB88:
 418              	.LBB89:
 302:Generated_Source\PSoC5/cyfitter_cfg.c **** 	CY_SET_XTND_REG8((void CYFAR *)(CYREG_BG_DFT0), (bg_xover_inl_trim & 0x07u));
 419              		.loc 1 302 0
 420 017e 214B     		ldr	r3, .L22+96
 303:Generated_Source\PSoC5/cyfitter_cfg.c **** 	CY_SET_XTND_REG8((void CYFAR *)(CYREG_BG_DFT1), ((bg_xover_inl_trim >> 4) & 0x0Fu));
 421              		.loc 1 303 0
 422 0180 214A     		ldr	r2, .L22+100
 302:Generated_Source\PSoC5/cyfitter_cfg.c **** 	CY_SET_XTND_REG8((void CYFAR *)(CYREG_BG_DFT0), (bg_xover_inl_trim & 0x07u));
 423              		.loc 1 302 0
 424 0182 1B78     		ldrb	r3, [r3]	@ zero_extendqisi2
 425 0184 DBB2     		uxtb	r3, r3
 426              	.LVL29:
 303:Generated_Source\PSoC5/cyfitter_cfg.c **** 	CY_SET_XTND_REG8((void CYFAR *)(CYREG_BG_DFT1), ((bg_xover_inl_trim >> 4) & 0x0Fu));
 427              		.loc 1 303 0
 428 0186 03F00701 		and	r1, r3, #7
 304:Generated_Source\PSoC5/cyfitter_cfg.c **** 	CY_SET_XTND_REG8((void CYFAR *)CYREG_PUMP_CR0, 0x44u);
 429              		.loc 1 304 0
 430 018a 1B09     		lsrs	r3, r3, #4
 431              	.LVL30:
 303:Generated_Source\PSoC5/cyfitter_cfg.c **** 	CY_SET_XTND_REG8((void CYFAR *)(CYREG_BG_DFT1), ((bg_xover_inl_trim >> 4) & 0x0Fu));
 432              		.loc 1 303 0
 433 018c 1170     		strb	r1, [r2]
 304:Generated_Source\PSoC5/cyfitter_cfg.c **** 	CY_SET_XTND_REG8((void CYFAR *)CYREG_PUMP_CR0, 0x44u);
 434              		.loc 1 304 0
 435 018e 5370     		strb	r3, [r2, #1]
 305:Generated_Source\PSoC5/cyfitter_cfg.c **** }
 436              		.loc 1 305 0
 437 0190 1E4B     		ldr	r3, .L22+104
 438 0192 4422     		movs	r2, #68
 439 0194 1A70     		strb	r2, [r3]
 440              	.LVL31:
 441              	.LBE89:
 442              	.LBE88:
 443              	.LBB90:
 444              	.LBB86:
  86:Generated_Source\PSoC5/cyfitter_cfg.c **** }
 445              		.loc 1 86 0
 446 0196 94E80F00 		ldmia	r4, {r0, r1, r2, r3}
 447 019a 07C5     		stmia	r5!, {r0, r1, r2}
 448 019c 2B80     		strh	r3, [r5]	@ movhi
 449              	.LVL32:
 450 019e F8BD     		pop	{r3, r4, r5, r6, r7, pc}
 451              	.LVL33:
 452              	.L10:
 453 01a0 FEE7     		b	.L10
 454              	.L23:
 455 01a2 00BF     		.align	2
 456              	.L22:
 457 01a4 E8460040 		.word	1073759976
ARM GAS  C:\Users\adria\AppData\Local\Temp\ccfCeBqn.s 			page 18


 458 01a8 00000000 		.word	.LANCHOR0
 459 01ac FCFFFF47 		.word	1207959548
 460 01b0 40000048 		.word	1207959616
 461 01b4 03500140 		.word	1073827843
 462 01b8 A0430040 		.word	1073759136
 463 01bc 30510040 		.word	1073762608
 464 01c0 25420040 		.word	1073758757
 465 01c4 34030048 		.word	1207960372
 466 01c8 C0510040 		.word	1073762752
 467 01cc 40030048 		.word	1207960384
 468 01d0 22510040 		.word	1073762594
 469 01d4 4C030048 		.word	1207960396
 470 01d8 22430040 		.word	1073759010
 471 01dc 00480040 		.word	1073760256
 472 01e0 82400040 		.word	1073758338
 473 01e4 00430040 		.word	1073758976
 474 01e8 08010049 		.word	1224737032
 475 01ec A1460040 		.word	1073759905
 476 01f0 22420040 		.word	1073758754
 477 01f4 04400040 		.word	1073758212
 478 01f8 06400040 		.word	1073758214
 479 01fc A2430040 		.word	1073759138
 480 0200 B0430040 		.word	1073759152
 481 0204 CF010049 		.word	1224737231
 482 0208 6E580040 		.word	1073764462
 483 020c 76580040 		.word	1073764470
 484              	.LBE86:
 485              	.LBE90:
 486              		.cfi_endproc
 487              	.LFE8:
 488              		.size	cyfitter_cfg, .-cyfitter_cfg
 489              		.section	.rodata
 490              		.set	.LANCHOR0,. + 0
 491              		.type	cfg_memset_list.5018, %object
 492              		.size	cfg_memset_list.5018, 60
 493              	cfg_memset_list.5018:
 494 0000 004F0040 		.4byte	1073762048
 495 0004 0C00     		.2byte	12
 496 0006 00510040 		.4byte	1073762560
 497 000a 1000     		.2byte	16
 498 000c 40510040 		.4byte	1073762624
 499 0010 3000     		.2byte	48
 500 0012 F0510040 		.4byte	1073762800
 501 0016 1000     		.2byte	16
 502 0018 00000140 		.4byte	1073807360
 503 001c 0010     		.2byte	4096
 504 001e 00140140 		.4byte	1073812480
 505 0022 0004     		.2byte	1024
 506 0024 80180140 		.4byte	1073813632
 507 0028 8003     		.2byte	896
 508 002a 00400140 		.4byte	1073823744
 509 002e 000A     		.2byte	2560
 510 0030 004C0140 		.4byte	1073826816
 511 0034 0002     		.2byte	512
 512 0036 00500140 		.4byte	1073827840
 513 003a 2000     		.2byte	32
 514              		.type	cfg_memcpy_list.5019, %object
ARM GAS  C:\Users\adria\AppData\Local\Temp\ccfCeBqn.s 			page 19


 515              		.size	cfg_memcpy_list.5019, 30
 516              	cfg_memcpy_list.5019:
 517 003c 18450040 		.4byte	1073759512
 518 0040 A4020048 		.4byte	1207960228
 519 0044 0800     		.2byte	8
 520 0046 60520040 		.4byte	1073762912
 521 004a AC020048 		.4byte	1207960236
 522 004e 0600     		.2byte	6
 523 0050 00180140 		.4byte	1073813504
 524 0054 B4020048 		.4byte	1207960244
 525 0058 8000     		.2byte	128
 526              		.text
 527              	.Letext0:
 528              		.file 2 "c:\\program files (x86)\\cypress\\psoc creator\\4.4\\psoc creator\\import\\gnu\\arm\\5.4.
 529              		.file 3 "Generated_Source\\PSoC5\\cytypes.h"
 530              		.file 4 "Generated_Source\\PSoC5\\CyLib.h"