ARM GAS  C:\Users\adria\AppData\Local\Temp\ccS3hOIx.s 			page 1


   1              		.syntax unified
   2              		.cpu cortex-m3
   3              		.fpu softvfp
   4              		.eabi_attribute 20, 1
   5              		.eabi_attribute 21, 1
   6              		.eabi_attribute 23, 3
   7              		.eabi_attribute 24, 1
   8              		.eabi_attribute 25, 1
   9              		.eabi_attribute 26, 1
  10              		.eabi_attribute 30, 4
  11              		.eabi_attribute 34, 1
  12              		.eabi_attribute 18, 4
  13              		.thumb
  14              		.syntax unified
  15              		.file	"Columns.c"
  16              		.text
  17              	.Ltext0:
  18              		.cfi_sections	.debug_frame
  19              		.section	.text.Columns_Write,"ax",%progbits
  20              		.align	1
  21              		.global	Columns_Write
  22              		.thumb
  23              		.thumb_func
  24              		.type	Columns_Write, %function
  25              	Columns_Write:
  26              	.LFB0:
  27              		.file 1 "Generated_Source\\PSoC5\\Columns.c"
   1:Generated_Source\PSoC5/Columns.c **** /*******************************************************************************
   2:Generated_Source\PSoC5/Columns.c **** * File Name: Columns.c  
   3:Generated_Source\PSoC5/Columns.c **** * Version 2.20
   4:Generated_Source\PSoC5/Columns.c **** *
   5:Generated_Source\PSoC5/Columns.c **** * Description:
   6:Generated_Source\PSoC5/Columns.c **** *  This file contains API to enable firmware control of a Pins component.
   7:Generated_Source\PSoC5/Columns.c **** *
   8:Generated_Source\PSoC5/Columns.c **** * Note:
   9:Generated_Source\PSoC5/Columns.c **** *
  10:Generated_Source\PSoC5/Columns.c **** ********************************************************************************
  11:Generated_Source\PSoC5/Columns.c **** * Copyright 2008-2015, Cypress Semiconductor Corporation.  All rights reserved.
  12:Generated_Source\PSoC5/Columns.c **** * You may use this file only in accordance with the license, terms, conditions, 
  13:Generated_Source\PSoC5/Columns.c **** * disclaimers, and limitations in the end user license agreement accompanying 
  14:Generated_Source\PSoC5/Columns.c **** * the software package with which this file was provided.
  15:Generated_Source\PSoC5/Columns.c **** *******************************************************************************/
  16:Generated_Source\PSoC5/Columns.c **** 
  17:Generated_Source\PSoC5/Columns.c **** #include "cytypes.h"
  18:Generated_Source\PSoC5/Columns.c **** #include "Columns.h"
  19:Generated_Source\PSoC5/Columns.c **** 
  20:Generated_Source\PSoC5/Columns.c **** /* APIs are not generated for P15[7:6] on PSoC 5 */
  21:Generated_Source\PSoC5/Columns.c **** #if !(CY_PSOC5A &&\
  22:Generated_Source\PSoC5/Columns.c **** 	 Columns__PORT == 15 && ((Columns__MASK & 0xC0) != 0))
  23:Generated_Source\PSoC5/Columns.c **** 
  24:Generated_Source\PSoC5/Columns.c **** 
  25:Generated_Source\PSoC5/Columns.c **** /*******************************************************************************
  26:Generated_Source\PSoC5/Columns.c **** * Function Name: Columns_Write
  27:Generated_Source\PSoC5/Columns.c **** ****************************************************************************//**
  28:Generated_Source\PSoC5/Columns.c **** *
  29:Generated_Source\PSoC5/Columns.c **** * \brief Writes the value to the physical port (data output register), masking
  30:Generated_Source\PSoC5/Columns.c **** *  and shifting the bits appropriately. 
ARM GAS  C:\Users\adria\AppData\Local\Temp\ccS3hOIx.s 			page 2


  31:Generated_Source\PSoC5/Columns.c **** *
  32:Generated_Source\PSoC5/Columns.c **** * The data output register controls the signal applied to the physical pin in 
  33:Generated_Source\PSoC5/Columns.c **** * conjunction with the drive mode parameter. This function avoids changing 
  34:Generated_Source\PSoC5/Columns.c **** * other bits in the port by using the appropriate method (read-modify-write or
  35:Generated_Source\PSoC5/Columns.c **** * bit banding).
  36:Generated_Source\PSoC5/Columns.c **** *
  37:Generated_Source\PSoC5/Columns.c **** * <b>Note</b> This function should not be used on a hardware digital output pin 
  38:Generated_Source\PSoC5/Columns.c **** * as it is driven by the hardware signal attached to it.
  39:Generated_Source\PSoC5/Columns.c **** *
  40:Generated_Source\PSoC5/Columns.c **** * \param value
  41:Generated_Source\PSoC5/Columns.c **** *  Value to write to the component instance.
  42:Generated_Source\PSoC5/Columns.c **** *
  43:Generated_Source\PSoC5/Columns.c **** * \return 
  44:Generated_Source\PSoC5/Columns.c **** *  None 
  45:Generated_Source\PSoC5/Columns.c **** *
  46:Generated_Source\PSoC5/Columns.c **** * \sideeffect
  47:Generated_Source\PSoC5/Columns.c **** *  If you use read-modify-write operations that are not atomic; the Interrupt 
  48:Generated_Source\PSoC5/Columns.c **** *  Service Routines (ISR) can cause corruption of this function. An ISR that 
  49:Generated_Source\PSoC5/Columns.c **** *  interrupts this function and performs writes to the Pins component data 
  50:Generated_Source\PSoC5/Columns.c **** *  register can cause corrupted port data. To avoid this issue, you should 
  51:Generated_Source\PSoC5/Columns.c **** *  either use the Per-Pin APIs (primary method) or disable interrupts around 
  52:Generated_Source\PSoC5/Columns.c **** *  this function.
  53:Generated_Source\PSoC5/Columns.c **** *
  54:Generated_Source\PSoC5/Columns.c **** * \funcusage
  55:Generated_Source\PSoC5/Columns.c **** *  \snippet Columns_SUT.c usage_Columns_Write
  56:Generated_Source\PSoC5/Columns.c **** *******************************************************************************/
  57:Generated_Source\PSoC5/Columns.c **** void Columns_Write(uint8 value)
  58:Generated_Source\PSoC5/Columns.c **** {
  28              		.loc 1 58 0
  29              		.cfi_startproc
  30              		@ args = 0, pretend = 0, frame = 0
  31              		@ frame_needed = 0, uses_anonymous_args = 0
  32              		@ link register save eliminated.
  33              	.LVL0:
  59:Generated_Source\PSoC5/Columns.c ****     uint8 staticBits = (Columns_DR & (uint8)(~Columns_MASK));
  34              		.loc 1 59 0
  35 0000 044A     		ldr	r2, .L2
  36 0002 1378     		ldrb	r3, [r2]	@ zero_extendqisi2
  37              	.LVL1:
  60:Generated_Source\PSoC5/Columns.c ****     Columns_DR = staticBits | ((uint8)(value << Columns_SHIFT) & Columns_MASK);
  38              		.loc 1 60 0
  39 0004 03F00F03 		and	r3, r3, #15
  40              	.LVL2:
  41 0008 43EA0010 		orr	r0, r3, r0, lsl #4
  42              	.LVL3:
  43 000c C0B2     		uxtb	r0, r0
  44 000e 1070     		strb	r0, [r2]
  45 0010 7047     		bx	lr
  46              	.L3:
  47 0012 00BF     		.align	2
  48              	.L2:
  49 0014 10510040 		.word	1073762576
  50              		.cfi_endproc
  51              	.LFE0:
  52              		.size	Columns_Write, .-Columns_Write
  53              		.section	.text.Columns_SetDriveMode,"ax",%progbits
  54              		.align	1
ARM GAS  C:\Users\adria\AppData\Local\Temp\ccS3hOIx.s 			page 3


  55              		.global	Columns_SetDriveMode
  56              		.thumb
  57              		.thumb_func
  58              		.type	Columns_SetDriveMode, %function
  59              	Columns_SetDriveMode:
  60              	.LFB1:
  61:Generated_Source\PSoC5/Columns.c **** }
  62:Generated_Source\PSoC5/Columns.c **** 
  63:Generated_Source\PSoC5/Columns.c **** 
  64:Generated_Source\PSoC5/Columns.c **** /*******************************************************************************
  65:Generated_Source\PSoC5/Columns.c **** * Function Name: Columns_SetDriveMode
  66:Generated_Source\PSoC5/Columns.c **** ****************************************************************************//**
  67:Generated_Source\PSoC5/Columns.c **** *
  68:Generated_Source\PSoC5/Columns.c **** * \brief Sets the drive mode for each of the Pins component's pins.
  69:Generated_Source\PSoC5/Columns.c **** * 
  70:Generated_Source\PSoC5/Columns.c **** * <b>Note</b> This affects all pins in the Pins component instance. Use the
  71:Generated_Source\PSoC5/Columns.c **** * Per-Pin APIs if you wish to control individual pin's drive modes.
  72:Generated_Source\PSoC5/Columns.c **** *
  73:Generated_Source\PSoC5/Columns.c **** * \param mode
  74:Generated_Source\PSoC5/Columns.c **** *  Mode for the selected signals. Valid options are documented in 
  75:Generated_Source\PSoC5/Columns.c **** *  \ref driveMode.
  76:Generated_Source\PSoC5/Columns.c **** *
  77:Generated_Source\PSoC5/Columns.c **** * \return
  78:Generated_Source\PSoC5/Columns.c **** *  None
  79:Generated_Source\PSoC5/Columns.c **** *
  80:Generated_Source\PSoC5/Columns.c **** * \sideeffect
  81:Generated_Source\PSoC5/Columns.c **** *  If you use read-modify-write operations that are not atomic, the ISR can
  82:Generated_Source\PSoC5/Columns.c **** *  cause corruption of this function. An ISR that interrupts this function 
  83:Generated_Source\PSoC5/Columns.c **** *  and performs writes to the Pins component Drive Mode registers can cause 
  84:Generated_Source\PSoC5/Columns.c **** *  corrupted port data. To avoid this issue, you should either use the Per-Pin
  85:Generated_Source\PSoC5/Columns.c **** *  APIs (primary method) or disable interrupts around this function.
  86:Generated_Source\PSoC5/Columns.c **** *
  87:Generated_Source\PSoC5/Columns.c **** * \funcusage
  88:Generated_Source\PSoC5/Columns.c **** *  \snippet Columns_SUT.c usage_Columns_SetDriveMode
  89:Generated_Source\PSoC5/Columns.c **** *******************************************************************************/
  90:Generated_Source\PSoC5/Columns.c **** void Columns_SetDriveMode(uint8 mode)
  91:Generated_Source\PSoC5/Columns.c **** {
  61              		.loc 1 91 0
  62              		.cfi_startproc
  63              		@ args = 0, pretend = 0, frame = 0
  64              		@ frame_needed = 0, uses_anonymous_args = 0
  65              		@ link register save eliminated.
  66              	.LVL4:
  92:Generated_Source\PSoC5/Columns.c **** 	CyPins_SetPinDriveMode(Columns_0, mode);
  67              		.loc 1 92 0
  68 0000 0B4A     		ldr	r2, .L5
  69 0002 00F00E00 		and	r0, r0, #14
  70              	.LVL5:
  71 0006 1378     		ldrb	r3, [r2]	@ zero_extendqisi2
  72 0008 03F0F103 		and	r3, r3, #241
  73 000c 0343     		orrs	r3, r3, r0
  74 000e 1370     		strb	r3, [r2]
  93:Generated_Source\PSoC5/Columns.c **** 	CyPins_SetPinDriveMode(Columns_1, mode);
  75              		.loc 1 93 0
  76 0010 5378     		ldrb	r3, [r2, #1]	@ zero_extendqisi2
  77 0012 03F0F103 		and	r3, r3, #241
  78 0016 0343     		orrs	r3, r3, r0
ARM GAS  C:\Users\adria\AppData\Local\Temp\ccS3hOIx.s 			page 4


  79 0018 5370     		strb	r3, [r2, #1]
  94:Generated_Source\PSoC5/Columns.c **** 	CyPins_SetPinDriveMode(Columns_2, mode);
  80              		.loc 1 94 0
  81 001a 9378     		ldrb	r3, [r2, #2]	@ zero_extendqisi2
  82 001c 03F0F103 		and	r3, r3, #241
  83 0020 0343     		orrs	r3, r3, r0
  84 0022 9370     		strb	r3, [r2, #2]
  95:Generated_Source\PSoC5/Columns.c **** 	CyPins_SetPinDriveMode(Columns_3, mode);
  85              		.loc 1 95 0
  86 0024 D378     		ldrb	r3, [r2, #3]	@ zero_extendqisi2
  87 0026 03F0F103 		and	r3, r3, #241
  88 002a 1843     		orrs	r0, r0, r3
  89 002c D070     		strb	r0, [r2, #3]
  90 002e 7047     		bx	lr
  91              	.L6:
  92              		.align	2
  93              	.L5:
  94 0030 0C500040 		.word	1073762316
  95              		.cfi_endproc
  96              	.LFE1:
  97              		.size	Columns_SetDriveMode, .-Columns_SetDriveMode
  98              		.section	.text.Columns_Read,"ax",%progbits
  99              		.align	1
 100              		.global	Columns_Read
 101              		.thumb
 102              		.thumb_func
 103              		.type	Columns_Read, %function
 104              	Columns_Read:
 105              	.LFB2:
  96:Generated_Source\PSoC5/Columns.c **** }
  97:Generated_Source\PSoC5/Columns.c **** 
  98:Generated_Source\PSoC5/Columns.c **** 
  99:Generated_Source\PSoC5/Columns.c **** /*******************************************************************************
 100:Generated_Source\PSoC5/Columns.c **** * Function Name: Columns_Read
 101:Generated_Source\PSoC5/Columns.c **** ****************************************************************************//**
 102:Generated_Source\PSoC5/Columns.c **** *
 103:Generated_Source\PSoC5/Columns.c **** * \brief Reads the associated physical port (pin status register) and masks 
 104:Generated_Source\PSoC5/Columns.c **** *  the required bits according to the width and bit position of the component
 105:Generated_Source\PSoC5/Columns.c **** *  instance. 
 106:Generated_Source\PSoC5/Columns.c **** *
 107:Generated_Source\PSoC5/Columns.c **** * The pin's status register returns the current logic level present on the 
 108:Generated_Source\PSoC5/Columns.c **** * physical pin.
 109:Generated_Source\PSoC5/Columns.c **** *
 110:Generated_Source\PSoC5/Columns.c **** * \return 
 111:Generated_Source\PSoC5/Columns.c **** *  The current value for the pins in the component as a right justified number.
 112:Generated_Source\PSoC5/Columns.c **** *
 113:Generated_Source\PSoC5/Columns.c **** * \funcusage
 114:Generated_Source\PSoC5/Columns.c **** *  \snippet Columns_SUT.c usage_Columns_Read  
 115:Generated_Source\PSoC5/Columns.c **** *******************************************************************************/
 116:Generated_Source\PSoC5/Columns.c **** uint8 Columns_Read(void)
 117:Generated_Source\PSoC5/Columns.c **** {
 106              		.loc 1 117 0
 107              		.cfi_startproc
 108              		@ args = 0, pretend = 0, frame = 0
 109              		@ frame_needed = 0, uses_anonymous_args = 0
 110              		@ link register save eliminated.
 118:Generated_Source\PSoC5/Columns.c ****     return (Columns_PS & Columns_MASK) >> Columns_SHIFT;
ARM GAS  C:\Users\adria\AppData\Local\Temp\ccS3hOIx.s 			page 5


 111              		.loc 1 118 0
 112 0000 014B     		ldr	r3, .L8
 113 0002 1878     		ldrb	r0, [r3]	@ zero_extendqisi2
 119:Generated_Source\PSoC5/Columns.c **** }
 114              		.loc 1 119 0
 115 0004 0009     		lsrs	r0, r0, #4
 116 0006 7047     		bx	lr
 117              	.L9:
 118              		.align	2
 119              	.L8:
 120 0008 11510040 		.word	1073762577
 121              		.cfi_endproc
 122              	.LFE2:
 123              		.size	Columns_Read, .-Columns_Read
 124              		.section	.text.Columns_ReadDataReg,"ax",%progbits
 125              		.align	1
 126              		.global	Columns_ReadDataReg
 127              		.thumb
 128              		.thumb_func
 129              		.type	Columns_ReadDataReg, %function
 130              	Columns_ReadDataReg:
 131              	.LFB3:
 120:Generated_Source\PSoC5/Columns.c **** 
 121:Generated_Source\PSoC5/Columns.c **** 
 122:Generated_Source\PSoC5/Columns.c **** /*******************************************************************************
 123:Generated_Source\PSoC5/Columns.c **** * Function Name: Columns_ReadDataReg
 124:Generated_Source\PSoC5/Columns.c **** ****************************************************************************//**
 125:Generated_Source\PSoC5/Columns.c **** *
 126:Generated_Source\PSoC5/Columns.c **** * \brief Reads the associated physical port's data output register and masks 
 127:Generated_Source\PSoC5/Columns.c **** *  the correct bits according to the width and bit position of the component 
 128:Generated_Source\PSoC5/Columns.c **** *  instance. 
 129:Generated_Source\PSoC5/Columns.c **** *
 130:Generated_Source\PSoC5/Columns.c **** * The data output register controls the signal applied to the physical pin in 
 131:Generated_Source\PSoC5/Columns.c **** * conjunction with the drive mode parameter. This is not the same as the 
 132:Generated_Source\PSoC5/Columns.c **** * preferred Columns_Read() API because the 
 133:Generated_Source\PSoC5/Columns.c **** * Columns_ReadDataReg() reads the data register instead of the status 
 134:Generated_Source\PSoC5/Columns.c **** * register. For output pins this is a useful function to determine the value 
 135:Generated_Source\PSoC5/Columns.c **** * just written to the pin.
 136:Generated_Source\PSoC5/Columns.c **** *
 137:Generated_Source\PSoC5/Columns.c **** * \return 
 138:Generated_Source\PSoC5/Columns.c **** *  The current value of the data register masked and shifted into a right 
 139:Generated_Source\PSoC5/Columns.c **** *  justified number for the component instance.
 140:Generated_Source\PSoC5/Columns.c **** *
 141:Generated_Source\PSoC5/Columns.c **** * \funcusage
 142:Generated_Source\PSoC5/Columns.c **** *  \snippet Columns_SUT.c usage_Columns_ReadDataReg 
 143:Generated_Source\PSoC5/Columns.c **** *******************************************************************************/
 144:Generated_Source\PSoC5/Columns.c **** uint8 Columns_ReadDataReg(void)
 145:Generated_Source\PSoC5/Columns.c **** {
 132              		.loc 1 145 0
 133              		.cfi_startproc
 134              		@ args = 0, pretend = 0, frame = 0
 135              		@ frame_needed = 0, uses_anonymous_args = 0
 136              		@ link register save eliminated.
 146:Generated_Source\PSoC5/Columns.c ****     return (Columns_DR & Columns_MASK) >> Columns_SHIFT;
 137              		.loc 1 146 0
 138 0000 014B     		ldr	r3, .L11
 139 0002 1878     		ldrb	r0, [r3]	@ zero_extendqisi2
ARM GAS  C:\Users\adria\AppData\Local\Temp\ccS3hOIx.s 			page 6


 147:Generated_Source\PSoC5/Columns.c **** }
 140              		.loc 1 147 0
 141 0004 0009     		lsrs	r0, r0, #4
 142 0006 7047     		bx	lr
 143              	.L12:
 144              		.align	2
 145              	.L11:
 146 0008 10510040 		.word	1073762576
 147              		.cfi_endproc
 148              	.LFE3:
 149              		.size	Columns_ReadDataReg, .-Columns_ReadDataReg
 150              		.text
 151              	.Letext0:
 152              		.file 2 "Generated_Source\\PSoC5\\cytypes.h"