ARM GAS  C:\Users\adria\AppData\Local\Temp\ccgyPB9E.s 			page 1


   1              		.syntax unified
   2              		.cpu cortex-m3
   3              		.fpu softvfp
   4              		.eabi_attribute 20, 1
   5              		.eabi_attribute 21, 1
   6              		.eabi_attribute 23, 3
   7              		.eabi_attribute 24, 1
   8              		.eabi_attribute 25, 1
   9              		.eabi_attribute 26, 1
  10              		.eabi_attribute 30, 4
  11              		.eabi_attribute 34, 1
  12              		.eabi_attribute 18, 4
  13              		.thumb
  14              		.syntax unified
  15              		.file	"Rows.c"
  16              		.text
  17              	.Ltext0:
  18              		.cfi_sections	.debug_frame
  19              		.section	.text.Rows_Write,"ax",%progbits
  20              		.align	1
  21              		.global	Rows_Write
  22              		.thumb
  23              		.thumb_func
  24              		.type	Rows_Write, %function
  25              	Rows_Write:
  26              	.LFB0:
  27              		.file 1 "Generated_Source\\PSoC5\\Rows.c"
   1:Generated_Source\PSoC5/Rows.c **** /*******************************************************************************
   2:Generated_Source\PSoC5/Rows.c **** * File Name: Rows.c  
   3:Generated_Source\PSoC5/Rows.c **** * Version 2.20
   4:Generated_Source\PSoC5/Rows.c **** *
   5:Generated_Source\PSoC5/Rows.c **** * Description:
   6:Generated_Source\PSoC5/Rows.c **** *  This file contains API to enable firmware control of a Pins component.
   7:Generated_Source\PSoC5/Rows.c **** *
   8:Generated_Source\PSoC5/Rows.c **** * Note:
   9:Generated_Source\PSoC5/Rows.c **** *
  10:Generated_Source\PSoC5/Rows.c **** ********************************************************************************
  11:Generated_Source\PSoC5/Rows.c **** * Copyright 2008-2015, Cypress Semiconductor Corporation.  All rights reserved.
  12:Generated_Source\PSoC5/Rows.c **** * You may use this file only in accordance with the license, terms, conditions, 
  13:Generated_Source\PSoC5/Rows.c **** * disclaimers, and limitations in the end user license agreement accompanying 
  14:Generated_Source\PSoC5/Rows.c **** * the software package with which this file was provided.
  15:Generated_Source\PSoC5/Rows.c **** *******************************************************************************/
  16:Generated_Source\PSoC5/Rows.c **** 
  17:Generated_Source\PSoC5/Rows.c **** #include "cytypes.h"
  18:Generated_Source\PSoC5/Rows.c **** #include "Rows.h"
  19:Generated_Source\PSoC5/Rows.c **** 
  20:Generated_Source\PSoC5/Rows.c **** /* APIs are not generated for P15[7:6] on PSoC 5 */
  21:Generated_Source\PSoC5/Rows.c **** #if !(CY_PSOC5A &&\
  22:Generated_Source\PSoC5/Rows.c **** 	 Rows__PORT == 15 && ((Rows__MASK & 0xC0) != 0))
  23:Generated_Source\PSoC5/Rows.c **** 
  24:Generated_Source\PSoC5/Rows.c **** 
  25:Generated_Source\PSoC5/Rows.c **** /*******************************************************************************
  26:Generated_Source\PSoC5/Rows.c **** * Function Name: Rows_Write
  27:Generated_Source\PSoC5/Rows.c **** ****************************************************************************//**
  28:Generated_Source\PSoC5/Rows.c **** *
  29:Generated_Source\PSoC5/Rows.c **** * \brief Writes the value to the physical port (data output register), masking
  30:Generated_Source\PSoC5/Rows.c **** *  and shifting the bits appropriately. 
ARM GAS  C:\Users\adria\AppData\Local\Temp\ccgyPB9E.s 			page 2


  31:Generated_Source\PSoC5/Rows.c **** *
  32:Generated_Source\PSoC5/Rows.c **** * The data output register controls the signal applied to the physical pin in 
  33:Generated_Source\PSoC5/Rows.c **** * conjunction with the drive mode parameter. This function avoids changing 
  34:Generated_Source\PSoC5/Rows.c **** * other bits in the port by using the appropriate method (read-modify-write or
  35:Generated_Source\PSoC5/Rows.c **** * bit banding).
  36:Generated_Source\PSoC5/Rows.c **** *
  37:Generated_Source\PSoC5/Rows.c **** * <b>Note</b> This function should not be used on a hardware digital output pin 
  38:Generated_Source\PSoC5/Rows.c **** * as it is driven by the hardware signal attached to it.
  39:Generated_Source\PSoC5/Rows.c **** *
  40:Generated_Source\PSoC5/Rows.c **** * \param value
  41:Generated_Source\PSoC5/Rows.c **** *  Value to write to the component instance.
  42:Generated_Source\PSoC5/Rows.c **** *
  43:Generated_Source\PSoC5/Rows.c **** * \return 
  44:Generated_Source\PSoC5/Rows.c **** *  None 
  45:Generated_Source\PSoC5/Rows.c **** *
  46:Generated_Source\PSoC5/Rows.c **** * \sideeffect
  47:Generated_Source\PSoC5/Rows.c **** *  If you use read-modify-write operations that are not atomic; the Interrupt 
  48:Generated_Source\PSoC5/Rows.c **** *  Service Routines (ISR) can cause corruption of this function. An ISR that 
  49:Generated_Source\PSoC5/Rows.c **** *  interrupts this function and performs writes to the Pins component data 
  50:Generated_Source\PSoC5/Rows.c **** *  register can cause corrupted port data. To avoid this issue, you should 
  51:Generated_Source\PSoC5/Rows.c **** *  either use the Per-Pin APIs (primary method) or disable interrupts around 
  52:Generated_Source\PSoC5/Rows.c **** *  this function.
  53:Generated_Source\PSoC5/Rows.c **** *
  54:Generated_Source\PSoC5/Rows.c **** * \funcusage
  55:Generated_Source\PSoC5/Rows.c **** *  \snippet Rows_SUT.c usage_Rows_Write
  56:Generated_Source\PSoC5/Rows.c **** *******************************************************************************/
  57:Generated_Source\PSoC5/Rows.c **** void Rows_Write(uint8 value)
  58:Generated_Source\PSoC5/Rows.c **** {
  28              		.loc 1 58 0
  29              		.cfi_startproc
  30              		@ args = 0, pretend = 0, frame = 0
  31              		@ frame_needed = 0, uses_anonymous_args = 0
  32              		@ link register save eliminated.
  33              	.LVL0:
  59:Generated_Source\PSoC5/Rows.c ****     uint8 staticBits = (Rows_DR & (uint8)(~Rows_MASK));
  34              		.loc 1 59 0
  35 0000 044A     		ldr	r2, .L2
  36 0002 1378     		ldrb	r3, [r2]	@ zero_extendqisi2
  37              	.LVL1:
  60:Generated_Source\PSoC5/Rows.c ****     Rows_DR = staticBits | ((uint8)(value << Rows_SHIFT) & Rows_MASK);
  38              		.loc 1 60 0
  39 0004 03F00F03 		and	r3, r3, #15
  40              	.LVL2:
  41 0008 43EA0010 		orr	r0, r3, r0, lsl #4
  42              	.LVL3:
  43 000c C0B2     		uxtb	r0, r0
  44 000e 1070     		strb	r0, [r2]
  45 0010 7047     		bx	lr
  46              	.L3:
  47 0012 00BF     		.align	2
  48              	.L2:
  49 0014 30510040 		.word	1073762608
  50              		.cfi_endproc
  51              	.LFE0:
  52              		.size	Rows_Write, .-Rows_Write
  53              		.section	.text.Rows_SetDriveMode,"ax",%progbits
  54              		.align	1
ARM GAS  C:\Users\adria\AppData\Local\Temp\ccgyPB9E.s 			page 3


  55              		.global	Rows_SetDriveMode
  56              		.thumb
  57              		.thumb_func
  58              		.type	Rows_SetDriveMode, %function
  59              	Rows_SetDriveMode:
  60              	.LFB1:
  61:Generated_Source\PSoC5/Rows.c **** }
  62:Generated_Source\PSoC5/Rows.c **** 
  63:Generated_Source\PSoC5/Rows.c **** 
  64:Generated_Source\PSoC5/Rows.c **** /*******************************************************************************
  65:Generated_Source\PSoC5/Rows.c **** * Function Name: Rows_SetDriveMode
  66:Generated_Source\PSoC5/Rows.c **** ****************************************************************************//**
  67:Generated_Source\PSoC5/Rows.c **** *
  68:Generated_Source\PSoC5/Rows.c **** * \brief Sets the drive mode for each of the Pins component's pins.
  69:Generated_Source\PSoC5/Rows.c **** * 
  70:Generated_Source\PSoC5/Rows.c **** * <b>Note</b> This affects all pins in the Pins component instance. Use the
  71:Generated_Source\PSoC5/Rows.c **** * Per-Pin APIs if you wish to control individual pin's drive modes.
  72:Generated_Source\PSoC5/Rows.c **** *
  73:Generated_Source\PSoC5/Rows.c **** * \param mode
  74:Generated_Source\PSoC5/Rows.c **** *  Mode for the selected signals. Valid options are documented in 
  75:Generated_Source\PSoC5/Rows.c **** *  \ref driveMode.
  76:Generated_Source\PSoC5/Rows.c **** *
  77:Generated_Source\PSoC5/Rows.c **** * \return
  78:Generated_Source\PSoC5/Rows.c **** *  None
  79:Generated_Source\PSoC5/Rows.c **** *
  80:Generated_Source\PSoC5/Rows.c **** * \sideeffect
  81:Generated_Source\PSoC5/Rows.c **** *  If you use read-modify-write operations that are not atomic, the ISR can
  82:Generated_Source\PSoC5/Rows.c **** *  cause corruption of this function. An ISR that interrupts this function 
  83:Generated_Source\PSoC5/Rows.c **** *  and performs writes to the Pins component Drive Mode registers can cause 
  84:Generated_Source\PSoC5/Rows.c **** *  corrupted port data. To avoid this issue, you should either use the Per-Pin
  85:Generated_Source\PSoC5/Rows.c **** *  APIs (primary method) or disable interrupts around this function.
  86:Generated_Source\PSoC5/Rows.c **** *
  87:Generated_Source\PSoC5/Rows.c **** * \funcusage
  88:Generated_Source\PSoC5/Rows.c **** *  \snippet Rows_SUT.c usage_Rows_SetDriveMode
  89:Generated_Source\PSoC5/Rows.c **** *******************************************************************************/
  90:Generated_Source\PSoC5/Rows.c **** void Rows_SetDriveMode(uint8 mode)
  91:Generated_Source\PSoC5/Rows.c **** {
  61              		.loc 1 91 0
  62              		.cfi_startproc
  63              		@ args = 0, pretend = 0, frame = 0
  64              		@ frame_needed = 0, uses_anonymous_args = 0
  65              		@ link register save eliminated.
  66              	.LVL4:
  92:Generated_Source\PSoC5/Rows.c **** 	CyPins_SetPinDriveMode(Rows_0, mode);
  67              		.loc 1 92 0
  68 0000 0B4A     		ldr	r2, .L5
  69 0002 00F00E00 		and	r0, r0, #14
  70              	.LVL5:
  71 0006 1378     		ldrb	r3, [r2]	@ zero_extendqisi2
  72 0008 03F0F103 		and	r3, r3, #241
  73 000c 0343     		orrs	r3, r3, r0
  74 000e 1370     		strb	r3, [r2]
  93:Generated_Source\PSoC5/Rows.c **** 	CyPins_SetPinDriveMode(Rows_1, mode);
  75              		.loc 1 93 0
  76 0010 5378     		ldrb	r3, [r2, #1]	@ zero_extendqisi2
  77 0012 03F0F103 		and	r3, r3, #241
  78 0016 0343     		orrs	r3, r3, r0
ARM GAS  C:\Users\adria\AppData\Local\Temp\ccgyPB9E.s 			page 4


  79 0018 5370     		strb	r3, [r2, #1]
  94:Generated_Source\PSoC5/Rows.c **** 	CyPins_SetPinDriveMode(Rows_2, mode);
  80              		.loc 1 94 0
  81 001a 9378     		ldrb	r3, [r2, #2]	@ zero_extendqisi2
  82 001c 03F0F103 		and	r3, r3, #241
  83 0020 0343     		orrs	r3, r3, r0
  84 0022 9370     		strb	r3, [r2, #2]
  95:Generated_Source\PSoC5/Rows.c **** 	CyPins_SetPinDriveMode(Rows_3, mode);
  85              		.loc 1 95 0
  86 0024 D378     		ldrb	r3, [r2, #3]	@ zero_extendqisi2
  87 0026 03F0F103 		and	r3, r3, #241
  88 002a 1843     		orrs	r0, r0, r3
  89 002c D070     		strb	r0, [r2, #3]
  90 002e 7047     		bx	lr
  91              	.L6:
  92              		.align	2
  93              	.L5:
  94 0030 1C500040 		.word	1073762332
  95              		.cfi_endproc
  96              	.LFE1:
  97              		.size	Rows_SetDriveMode, .-Rows_SetDriveMode
  98              		.section	.text.Rows_Read,"ax",%progbits
  99              		.align	1
 100              		.global	Rows_Read
 101              		.thumb
 102              		.thumb_func
 103              		.type	Rows_Read, %function
 104              	Rows_Read:
 105              	.LFB2:
  96:Generated_Source\PSoC5/Rows.c **** }
  97:Generated_Source\PSoC5/Rows.c **** 
  98:Generated_Source\PSoC5/Rows.c **** 
  99:Generated_Source\PSoC5/Rows.c **** /*******************************************************************************
 100:Generated_Source\PSoC5/Rows.c **** * Function Name: Rows_Read
 101:Generated_Source\PSoC5/Rows.c **** ****************************************************************************//**
 102:Generated_Source\PSoC5/Rows.c **** *
 103:Generated_Source\PSoC5/Rows.c **** * \brief Reads the associated physical port (pin status register) and masks 
 104:Generated_Source\PSoC5/Rows.c **** *  the required bits according to the width and bit position of the component
 105:Generated_Source\PSoC5/Rows.c **** *  instance. 
 106:Generated_Source\PSoC5/Rows.c **** *
 107:Generated_Source\PSoC5/Rows.c **** * The pin's status register returns the current logic level present on the 
 108:Generated_Source\PSoC5/Rows.c **** * physical pin.
 109:Generated_Source\PSoC5/Rows.c **** *
 110:Generated_Source\PSoC5/Rows.c **** * \return 
 111:Generated_Source\PSoC5/Rows.c **** *  The current value for the pins in the component as a right justified number.
 112:Generated_Source\PSoC5/Rows.c **** *
 113:Generated_Source\PSoC5/Rows.c **** * \funcusage
 114:Generated_Source\PSoC5/Rows.c **** *  \snippet Rows_SUT.c usage_Rows_Read  
 115:Generated_Source\PSoC5/Rows.c **** *******************************************************************************/
 116:Generated_Source\PSoC5/Rows.c **** uint8 Rows_Read(void)
 117:Generated_Source\PSoC5/Rows.c **** {
 106              		.loc 1 117 0
 107              		.cfi_startproc
 108              		@ args = 0, pretend = 0, frame = 0
 109              		@ frame_needed = 0, uses_anonymous_args = 0
 110              		@ link register save eliminated.
 118:Generated_Source\PSoC5/Rows.c ****     return (Rows_PS & Rows_MASK) >> Rows_SHIFT;
ARM GAS  C:\Users\adria\AppData\Local\Temp\ccgyPB9E.s 			page 5


 111              		.loc 1 118 0
 112 0000 014B     		ldr	r3, .L8
 113 0002 1878     		ldrb	r0, [r3]	@ zero_extendqisi2
 119:Generated_Source\PSoC5/Rows.c **** }
 114              		.loc 1 119 0
 115 0004 0009     		lsrs	r0, r0, #4
 116 0006 7047     		bx	lr
 117              	.L9:
 118              		.align	2
 119              	.L8:
 120 0008 31510040 		.word	1073762609
 121              		.cfi_endproc
 122              	.LFE2:
 123              		.size	Rows_Read, .-Rows_Read
 124              		.section	.text.Rows_ReadDataReg,"ax",%progbits
 125              		.align	1
 126              		.global	Rows_ReadDataReg
 127              		.thumb
 128              		.thumb_func
 129              		.type	Rows_ReadDataReg, %function
 130              	Rows_ReadDataReg:
 131              	.LFB3:
 120:Generated_Source\PSoC5/Rows.c **** 
 121:Generated_Source\PSoC5/Rows.c **** 
 122:Generated_Source\PSoC5/Rows.c **** /*******************************************************************************
 123:Generated_Source\PSoC5/Rows.c **** * Function Name: Rows_ReadDataReg
 124:Generated_Source\PSoC5/Rows.c **** ****************************************************************************//**
 125:Generated_Source\PSoC5/Rows.c **** *
 126:Generated_Source\PSoC5/Rows.c **** * \brief Reads the associated physical port's data output register and masks 
 127:Generated_Source\PSoC5/Rows.c **** *  the correct bits according to the width and bit position of the component 
 128:Generated_Source\PSoC5/Rows.c **** *  instance. 
 129:Generated_Source\PSoC5/Rows.c **** *
 130:Generated_Source\PSoC5/Rows.c **** * The data output register controls the signal applied to the physical pin in 
 131:Generated_Source\PSoC5/Rows.c **** * conjunction with the drive mode parameter. This is not the same as the 
 132:Generated_Source\PSoC5/Rows.c **** * preferred Rows_Read() API because the 
 133:Generated_Source\PSoC5/Rows.c **** * Rows_ReadDataReg() reads the data register instead of the status 
 134:Generated_Source\PSoC5/Rows.c **** * register. For output pins this is a useful function to determine the value 
 135:Generated_Source\PSoC5/Rows.c **** * just written to the pin.
 136:Generated_Source\PSoC5/Rows.c **** *
 137:Generated_Source\PSoC5/Rows.c **** * \return 
 138:Generated_Source\PSoC5/Rows.c **** *  The current value of the data register masked and shifted into a right 
 139:Generated_Source\PSoC5/Rows.c **** *  justified number for the component instance.
 140:Generated_Source\PSoC5/Rows.c **** *
 141:Generated_Source\PSoC5/Rows.c **** * \funcusage
 142:Generated_Source\PSoC5/Rows.c **** *  \snippet Rows_SUT.c usage_Rows_ReadDataReg 
 143:Generated_Source\PSoC5/Rows.c **** *******************************************************************************/
 144:Generated_Source\PSoC5/Rows.c **** uint8 Rows_ReadDataReg(void)
 145:Generated_Source\PSoC5/Rows.c **** {
 132              		.loc 1 145 0
 133              		.cfi_startproc
 134              		@ args = 0, pretend = 0, frame = 0
 135              		@ frame_needed = 0, uses_anonymous_args = 0
 136              		@ link register save eliminated.
 146:Generated_Source\PSoC5/Rows.c ****     return (Rows_DR & Rows_MASK) >> Rows_SHIFT;
 137              		.loc 1 146 0
 138 0000 014B     		ldr	r3, .L11
 139 0002 1878     		ldrb	r0, [r3]	@ zero_extendqisi2
ARM GAS  C:\Users\adria\AppData\Local\Temp\ccgyPB9E.s 			page 6


 147:Generated_Source\PSoC5/Rows.c **** }
 140              		.loc 1 147 0
 141 0004 0009     		lsrs	r0, r0, #4
 142 0006 7047     		bx	lr
 143              	.L12:
 144              		.align	2
 145              	.L11:
 146 0008 30510040 		.word	1073762608
 147              		.cfi_endproc
 148              	.LFE3:
 149              		.size	Rows_ReadDataReg, .-Rows_ReadDataReg
 150              		.section	.text.Rows_SetInterruptMode,"ax",%progbits
 151              		.align	1
 152              		.global	Rows_SetInterruptMode
 153              		.thumb
 154              		.thumb_func
 155              		.type	Rows_SetInterruptMode, %function
 156              	Rows_SetInterruptMode:
 157              	.LFB4:
 148:Generated_Source\PSoC5/Rows.c **** 
 149:Generated_Source\PSoC5/Rows.c **** 
 150:Generated_Source\PSoC5/Rows.c **** /* If interrupt is connected for this Pins component */ 
 151:Generated_Source\PSoC5/Rows.c **** #if defined(Rows_INTSTAT) 
 152:Generated_Source\PSoC5/Rows.c **** 
 153:Generated_Source\PSoC5/Rows.c ****     /*******************************************************************************
 154:Generated_Source\PSoC5/Rows.c ****     * Function Name: Rows_SetInterruptMode
 155:Generated_Source\PSoC5/Rows.c ****     ****************************************************************************//**
 156:Generated_Source\PSoC5/Rows.c ****     *
 157:Generated_Source\PSoC5/Rows.c ****     * \brief Configures the interrupt mode for each of the Pins component's
 158:Generated_Source\PSoC5/Rows.c ****     *  pins. Alternatively you may set the interrupt mode for all the pins
 159:Generated_Source\PSoC5/Rows.c ****     *  specified in the Pins component.
 160:Generated_Source\PSoC5/Rows.c ****     *
 161:Generated_Source\PSoC5/Rows.c ****     *  <b>Note</b> The interrupt is port-wide and therefore any enabled pin
 162:Generated_Source\PSoC5/Rows.c ****     *  interrupt may trigger it.
 163:Generated_Source\PSoC5/Rows.c ****     *
 164:Generated_Source\PSoC5/Rows.c ****     * \param position
 165:Generated_Source\PSoC5/Rows.c ****     *  The pin position as listed in the Pins component. You may OR these to be 
 166:Generated_Source\PSoC5/Rows.c ****     *  able to configure the interrupt mode of multiple pins within a Pins 
 167:Generated_Source\PSoC5/Rows.c ****     *  component. Or you may use Rows_INTR_ALL to configure the
 168:Generated_Source\PSoC5/Rows.c ****     *  interrupt mode of all the pins in the Pins component.       
 169:Generated_Source\PSoC5/Rows.c ****     *  - Rows_0_INTR       (First pin in the list)
 170:Generated_Source\PSoC5/Rows.c ****     *  - Rows_1_INTR       (Second pin in the list)
 171:Generated_Source\PSoC5/Rows.c ****     *  - ...
 172:Generated_Source\PSoC5/Rows.c ****     *  - Rows_INTR_ALL     (All pins in Pins component)
 173:Generated_Source\PSoC5/Rows.c ****     *
 174:Generated_Source\PSoC5/Rows.c ****     * \param mode
 175:Generated_Source\PSoC5/Rows.c ****     *  Interrupt mode for the selected pins. Valid options are documented in
 176:Generated_Source\PSoC5/Rows.c ****     *  \ref intrMode.
 177:Generated_Source\PSoC5/Rows.c ****     *
 178:Generated_Source\PSoC5/Rows.c ****     * \return 
 179:Generated_Source\PSoC5/Rows.c ****     *  None
 180:Generated_Source\PSoC5/Rows.c ****     *  
 181:Generated_Source\PSoC5/Rows.c ****     * \sideeffect
 182:Generated_Source\PSoC5/Rows.c ****     *  It is recommended that the interrupt be disabled before calling this 
 183:Generated_Source\PSoC5/Rows.c ****     *  function to avoid unintended interrupt requests. Note that the interrupt
 184:Generated_Source\PSoC5/Rows.c ****     *  type is port wide, and therefore will trigger for any enabled pin on the 
 185:Generated_Source\PSoC5/Rows.c ****     *  port.
ARM GAS  C:\Users\adria\AppData\Local\Temp\ccgyPB9E.s 			page 7


 186:Generated_Source\PSoC5/Rows.c ****     *
 187:Generated_Source\PSoC5/Rows.c ****     * \funcusage
 188:Generated_Source\PSoC5/Rows.c ****     *  \snippet Rows_SUT.c usage_Rows_SetInterruptMode
 189:Generated_Source\PSoC5/Rows.c ****     *******************************************************************************/
 190:Generated_Source\PSoC5/Rows.c ****     void Rows_SetInterruptMode(uint16 position, uint16 mode)
 191:Generated_Source\PSoC5/Rows.c ****     {
 158              		.loc 1 191 0
 159              		.cfi_startproc
 160              		@ args = 0, pretend = 0, frame = 0
 161              		@ frame_needed = 0, uses_anonymous_args = 0
 162              		@ link register save eliminated.
 163              	.LVL6:
 192:Generated_Source\PSoC5/Rows.c **** 		if((position & Rows_0_INTR) != 0u) 
 164              		.loc 1 192 0
 165 0000 C206     		lsls	r2, r0, #27
 193:Generated_Source\PSoC5/Rows.c **** 		{ 
 194:Generated_Source\PSoC5/Rows.c **** 			 Rows_0_INTTYPE_REG = (uint8)mode; 
 166              		.loc 1 194 0
 167 0002 42BF     		ittt	mi
 168 0004 094A     		ldrmi	r2, .L30
 169 0006 CBB2     		uxtbmi	r3, r1
 170 0008 1370     		strbmi	r3, [r2]
 195:Generated_Source\PSoC5/Rows.c **** 		} 
 196:Generated_Source\PSoC5/Rows.c **** 		if((position & Rows_1_INTR) != 0u) 
 171              		.loc 1 196 0
 172 000a 8306     		lsls	r3, r0, #26
 197:Generated_Source\PSoC5/Rows.c **** 		{ 
 198:Generated_Source\PSoC5/Rows.c **** 			 Rows_1_INTTYPE_REG = (uint8)mode; 
 173              		.loc 1 198 0
 174 000c 42BF     		ittt	mi
 175 000e 084A     		ldrmi	r2, .L30+4
 176 0010 CBB2     		uxtbmi	r3, r1
 177 0012 1370     		strbmi	r3, [r2]
 199:Generated_Source\PSoC5/Rows.c **** 		} 
 200:Generated_Source\PSoC5/Rows.c **** 		if((position & Rows_2_INTR) != 0u) 
 178              		.loc 1 200 0
 179 0014 4206     		lsls	r2, r0, #25
 201:Generated_Source\PSoC5/Rows.c **** 		{ 
 202:Generated_Source\PSoC5/Rows.c **** 			 Rows_2_INTTYPE_REG = (uint8)mode; 
 180              		.loc 1 202 0
 181 0016 42BF     		ittt	mi
 182 0018 064A     		ldrmi	r2, .L30+8
 183 001a CBB2     		uxtbmi	r3, r1
 184 001c 1370     		strbmi	r3, [r2]
 203:Generated_Source\PSoC5/Rows.c **** 		} 
 204:Generated_Source\PSoC5/Rows.c **** 		if((position & Rows_3_INTR) != 0u) 
 185              		.loc 1 204 0
 186 001e 0306     		lsls	r3, r0, #24
 205:Generated_Source\PSoC5/Rows.c **** 		{ 
 206:Generated_Source\PSoC5/Rows.c **** 			 Rows_3_INTTYPE_REG = (uint8)mode; 
 187              		.loc 1 206 0
 188 0020 42BF     		ittt	mi
 189 0022 054B     		ldrmi	r3, .L30+12
 190 0024 C9B2     		uxtbmi	r1, r1
 191              	.LVL7:
 192 0026 1970     		strbmi	r1, [r3]
 193 0028 7047     		bx	lr
ARM GAS  C:\Users\adria\AppData\Local\Temp\ccgyPB9E.s 			page 8


 194              	.L31:
 195 002a 00BF     		.align	2
 196              	.L30:
 197 002c 1C450040 		.word	1073759516
 198 0030 1D450040 		.word	1073759517
 199 0034 1E450040 		.word	1073759518
 200 0038 1F450040 		.word	1073759519
 201              		.cfi_endproc
 202              	.LFE4:
 203              		.size	Rows_SetInterruptMode, .-Rows_SetInterruptMode
 204              		.section	.text.Rows_ClearInterrupt,"ax",%progbits
 205              		.align	1
 206              		.global	Rows_ClearInterrupt
 207              		.thumb
 208              		.thumb_func
 209              		.type	Rows_ClearInterrupt, %function
 210              	Rows_ClearInterrupt:
 211              	.LFB5:
 207:Generated_Source\PSoC5/Rows.c **** 		}
 208:Generated_Source\PSoC5/Rows.c ****     }
 209:Generated_Source\PSoC5/Rows.c ****     
 210:Generated_Source\PSoC5/Rows.c ****     
 211:Generated_Source\PSoC5/Rows.c ****     /*******************************************************************************
 212:Generated_Source\PSoC5/Rows.c ****     * Function Name: Rows_ClearInterrupt
 213:Generated_Source\PSoC5/Rows.c ****     ****************************************************************************//**
 214:Generated_Source\PSoC5/Rows.c ****     *
 215:Generated_Source\PSoC5/Rows.c ****     * \brief Clears any active interrupts attached with the component and returns 
 216:Generated_Source\PSoC5/Rows.c ****     *  the value of the interrupt status register allowing determination of which
 217:Generated_Source\PSoC5/Rows.c ****     *  pins generated an interrupt event.
 218:Generated_Source\PSoC5/Rows.c ****     *
 219:Generated_Source\PSoC5/Rows.c ****     * \return 
 220:Generated_Source\PSoC5/Rows.c ****     *  The right-shifted current value of the interrupt status register. Each pin 
 221:Generated_Source\PSoC5/Rows.c ****     *  has one bit set if it generated an interrupt event. For example, bit 0 is 
 222:Generated_Source\PSoC5/Rows.c ****     *  for pin 0 and bit 1 is for pin 1 of the Pins component.
 223:Generated_Source\PSoC5/Rows.c ****     *  
 224:Generated_Source\PSoC5/Rows.c ****     * \sideeffect
 225:Generated_Source\PSoC5/Rows.c ****     *  Clears all bits of the physical port's interrupt status register, not just
 226:Generated_Source\PSoC5/Rows.c ****     *  those associated with the Pins component.
 227:Generated_Source\PSoC5/Rows.c ****     *
 228:Generated_Source\PSoC5/Rows.c ****     * \funcusage
 229:Generated_Source\PSoC5/Rows.c ****     *  \snippet Rows_SUT.c usage_Rows_ClearInterrupt
 230:Generated_Source\PSoC5/Rows.c ****     *******************************************************************************/
 231:Generated_Source\PSoC5/Rows.c ****     uint8 Rows_ClearInterrupt(void)
 232:Generated_Source\PSoC5/Rows.c ****     {
 212              		.loc 1 232 0
 213              		.cfi_startproc
 214              		@ args = 0, pretend = 0, frame = 0
 215              		@ frame_needed = 0, uses_anonymous_args = 0
 216              		@ link register save eliminated.
 233:Generated_Source\PSoC5/Rows.c ****         return (Rows_INTSTAT & Rows_MASK) >> Rows_SHIFT;
 217              		.loc 1 233 0
 218 0000 014B     		ldr	r3, .L33
 219 0002 1878     		ldrb	r0, [r3]	@ zero_extendqisi2
 234:Generated_Source\PSoC5/Rows.c ****     }
 220              		.loc 1 234 0
 221 0004 0009     		lsrs	r0, r0, #4
 222 0006 7047     		bx	lr
ARM GAS  C:\Users\adria\AppData\Local\Temp\ccgyPB9E.s 			page 9


 223              	.L34:
 224              		.align	2
 225              	.L33:
 226 0008 83450040 		.word	1073759619
 227              		.cfi_endproc
 228              	.LFE5:
 229              		.size	Rows_ClearInterrupt, .-Rows_ClearInterrupt
 230              		.text
 231              	.Letext0:
 232              		.file 2 "Generated_Source\\PSoC5\\cytypes.h"